
tty_io.o:     file format elf32-tradbigmips
tty_io.o
architecture: mips:3000, flags 0x00000011:
HAS_RELOC, HAS_SYMS
start address 0x00000000
private flags = 1001: [abi=O32] [mips1] [not 32bitmode]

Sections:
Idx Name          Size      VMA       LMA       File off  Algn
  0 .text         00003f90  00000000  00000000  00000040  2**4
                  CONTENTS, ALLOC, LOAD, RELOC, READONLY, CODE
  1 .data         00000120  00000000  00000000  00003fd0  2**4
                  CONTENTS, ALLOC, LOAD, RELOC, DATA
  2 .bss          00000680  00000000  00000000  000040f0  2**4
                  ALLOC
  3 .reginfo      00000018  00000000  00000000  000040f0  2**2
                  CONTENTS, ALLOC, LOAD, READONLY, DATA, LINK_ONCE_SAME_SIZE
  4 .pdr          00000740  00000000  00000000  00004108  2**2
                  CONTENTS, RELOC, READONLY
  5 .mdebug.abi32 00000000  00000000  00000000  00004848  2**0
                  CONTENTS, READONLY
  6 .debug_abbrev 000005cb  00000000  00000000  00004848  2**0
                  CONTENTS, READONLY, DEBUGGING
  7 .debug_info   00011f6e  00000000  00000000  00004e13  2**0
                  CONTENTS, RELOC, READONLY, DEBUGGING
  8 .debug_line   000026b9  00000000  00000000  00016d81  2**0
                  CONTENTS, RELOC, READONLY, DEBUGGING
  9 .rodata       00000570  00000000  00000000  00019440  2**4
                  CONTENTS, ALLOC, LOAD, READONLY, DATA
 10 .kstrtab      00000040  00000000  00000000  000199b0  2**2
                  CONTENTS, ALLOC, LOAD, READONLY, DATA
 11 __ksymtab     00000018  00000000  00000000  000199f0  2**2
                  CONTENTS, ALLOC, LOAD, RELOC, READONLY, DATA
 12 .fixup        00000048  00000000  00000000  00019a08  2**0
                  CONTENTS, ALLOC, LOAD, RELOC, READONLY, CODE
 13 __ex_table    00000038  00000000  00000000  00019a50  2**2
                  CONTENTS, ALLOC, LOAD, RELOC, READONLY, DATA
 14 .text.init    00000238  00000000  00000000  00019a88  2**2
                  CONTENTS, ALLOC, LOAD, RELOC, READONLY, CODE
 15 .debug_frame  00000674  00000000  00000000  00019cc0  2**2
                  CONTENTS, RELOC, READONLY, DEBUGGING
 16 .debug_pubnames 000002d0  00000000  00000000  0001a334  2**0
                  CONTENTS, RELOC, READONLY, DEBUGGING
 17 .debug_aranges 00000030  00000000  00000000  0001a604  2**0
                  CONTENTS, RELOC, READONLY, DEBUGGING
 18 .debug_str    00008a11  00000000  00000000  0001a634  2**0
                  CONTENTS, READONLY, DEBUGGING
 19 .comment      00000012  00000000  00000000  00023045  2**0
                  CONTENTS, READONLY
SYMBOL TABLE:
00000000 l    df *ABS*	00000000 tty_io.c
00000000 l    d  .text	00000000 
00000000 l    d  .data	00000000 
00000000 l    d  .bss	00000000 
00000000 l    d  .mdebug.abi32	00000000 
00000000 l    d  .debug_abbrev	00000000 
00000000 l    d  .debug_info	00000000 
00000000 l    d  .debug_line	00000000 
00000000 l     F .text	00000000 alloc_tty_struct
00000044 l     F .text	00000000 _tty_make_name
000000f4 l     F .text	00000000 check_tty_count
00000000 l    d  .kstrtab	00000000 
00000000 l    d  __ksymtab	00000000 
000002a4 l     F .text	00000000 tty_set_ldisc
00000658 l     F .text	00000000 hung_up_tty_read
00000670 l     F .text	00000000 hung_up_tty_write
00000688 l     F .text	00000000 hung_up_tty_poll
00000690 l     F .text	00000000 hung_up_tty_ioctl
00000000 l     O .data	00000048 tty_fops
00000d74 l     F .text	00000000 tty_read
00000eb0 l     F .text	00000000 tty_write
000024a0 l     F .text	00000000 tty_poll
00001f90 l     F .text	00000000 tty_open
0000247c l     F .text	00000000 tty_release
00002580 l     F .text	00000000 tty_fasync
00000048 l     O .data	00000048 hung_up_tty_fops
000000e4 l     O .rodata	00000038 badmagic.0
0000011c l     O .rodata	00000025 badtty.1
00003ce0 l     F .text	00000000 do_tty_write
00000090 l     O .data	00000010 tty_sem
00001020 l     F .text	00000000 down_tty_sem
000010a8 l     F .text	00000000 up_tty_sem
00001130 l     F .text	00000000 init_dev
00003820 l     F .text	00000000 initialize_tty_struct
0000174c l     F .text	00000000 release_mem
00001874 l     F .text	00000000 release_dev
00000000 l     O .bss	00000004 nr_warns.3
00002710 l     F .text	00000000 tiocsti
00000000 l    d  .fixup	00000000 
00000000 l    d  __ex_table	00000000 
000027ac l     F .text	00000000 tiocgwinsz
000027e8 l     F .text	00000000 tiocswinsz
000028ac l     F .text	00000000 tioccons
00002948 l     F .text	00000000 fionbio
00002990 l     F .text	00000000 tiocsctty
00002ab4 l     F .text	00000000 tiocgpgrp
00002ae8 l     F .text	00000000 tiocspgrp
00002ba4 l     F .text	00000000 tiocgsid
00002be8 l     F .text	00000000 tiocttygstruct
00002c20 l     F .text	00000000 tiocsetd
00002c58 l     F .text	00000000 send_break
000032b8 l     F .text	00000000 __do_SAK
0000345c l     F .text	00000000 flush_to_ldisc
000000a0 l     O .data	0000007c baud_table
0000011c l     O .data	00000004 n_baud_table
00000000 l    d  .text.init	00000000 
00000434 l     O .bss	000000c0 dev_tty_driver
000004f4 l     O .bss	000000c0 dev_syscons_driver
000005b4 l     O .bss	000000c0 dev_ptmx_driver
00000000 l    d  .debug_frame	00000000 
00000000 l    d  .debug_pubnames	00000000 
00000000 l    d  .debug_aranges	00000000 
00000000 l    d  .debug_str	00000000 
00000000 l    d  .rodata	00000000 
00000000 l    d  .reginfo	00000000 
00000000 l    d  .pdr	00000000 
00000000 l    d  .comment	00000000 
00000000         *UND*	00000000 kmalloc
00000000         *UND*	00000000 memset
00000000         *UND*	00000000 sprintf
000000c4 g     F .text	00000000 tty_name
00000000         *UND*	00000000 kdevname
00000000         *UND*	00000000 printk
000001e8 g     F .text	00000000 tty_register_ldisc
00000030 g     O .bss	00000400 ldiscs
00000000 g     O .kstrtab	00000013 __kstrtab_tty_register_ldisc
00000000 g     O __ksymtab	00000008 __ksymtab_tty_register_ldisc
00000000         *UND*	00000000 request_module
00000000         *UND*	00000000 tty_wait_until_sent
00000000         *UND*	00000000 panic
0000054c g     F .text	00000000 get_tty_driver
00000430 g     O .bss	00000004 tty_drivers
000005c0 g     F .text	00000000 tty_check_change
00000000         *UND*	00000000 is_ignored
00000000         *UND*	00000000 is_orphaned_pgrp
00000000         *UND*	00000000 kill_pg
00000000         *UND*	00000000 no_llseek
00002cdc g     F .text	00000000 tty_ioctl
000006ac g     F .text	00000000 do_tty_hangup
00000000         *UND*	00000000 __wake_up
00000000         *UND*	00000000 init_task_union
00000000         *UND*	00000000 send_sig
00000a8c g     F .text	00000000 tty_hangup
00000000         *UND*	00000000 schedule_task
00000aac g     F .text	00000000 tty_vhangup
00000acc g     F .text	00000000 tty_hung_up_p
00000ae4 g     F .text	00000000 disassociate_ctty
00000c00 g     F .text	00000000 stop_tty
00000c94 g     F .text	00000000 start_tty
00000000         *UND*	00000000 xtime
0000002c g     O .bss	00000004 redirect
00000000         *UND*	00000000 __down
00000000         *UND*	00000000 __up
00000000         *UND*	00000000 kfree
00000000         *UND*	00000000 schedule
00000000         *UND*	00000000 tq_timer
00000000         *UND*	00000000 __run_task_queue
00000000         *UND*	00000000 flush_scheduled_tasks
00000000         *UND*	00000000 console_drivers
00000000         *UND*	00000000 ptm_driver
00000000         *UND*	00000000 devpts_pty_new
00000000         *UND*	00000000 pts_driver
00003980 g     F .text	00000000 tty_register_devfs
00000000         *UND*	00000000 file_move
00000000         *UND*	00000000 securebits
00000000         *UND*	00000000 fasync_helper
00000000         *UND*	00000000 __copy_user
00000000         *UND*	00000000 memcmp
00000000         *UND*	00000000 session_of_pgrp
00000000         *UND*	00000000 schedule_timeout
00003428 g     F .text	00000000 do_SAK
0000362c g     F .text	00000000 tty_get_baud_rate
00003718 g     F .text	00000000 tty_flip_buffer_push
00003950 g     F .text	00000000 tty_default_put_char
00003988 g     F .text	00000000 tty_unregister_devfs
00000014 g     O .kstrtab	00000013 __kstrtab_tty_register_devfs
00000008 g     O __ksymtab	00000008 __ksymtab_tty_register_devfs
00000028 g     O .kstrtab	00000015 __kstrtab_tty_unregister_devfs
00000010 g     O __ksymtab	00000008 __ksymtab_tty_unregister_devfs
00003990 g     F .text	00000000 tty_register_driver
00000000         *UND*	00000000 register_chrdev
00000000         *UND*	00000000 proc_tty_register_driver
00003abc g     F .text	00000000 tty_unregister_driver
00000000         *UND*	00000000 unregister_chrdev
00000000         *UND*	00000000 proc_tty_unregister_driver
00000000 g     F .text.init	00000000 console_init
00000000         *UND*	00000000 tty_ldisc_N_TTY
00000004 g     O .bss	00000028 tty_std_termios
00000000         *UND*	00000000 tx39_serial_console_init
0000007c g     F .text.init	00000000 tty_init
00000000         *UND*	00000000 rs_init
00000000         *UND*	00000000 pty_init
00003c68 g     F .text	00000000 tty_paranoia_check
00000000         *UND*	00000000 __down_trylock
00000000         *UND*	00000000 __down_interruptible


Disassembly of section .text:

00000000 <alloc_tty_struct>:
       0:	27bdffe8 	addiu	sp,sp,-24
       4:	afbf0014 	sw	ra,20(sp)
       8:	afb00010 	sw	s0,16(sp)
       c:	24040c38 	li	a0,3128
      10:	0c000000 	jal	0 <alloc_tty_struct>
			10: R_MIPS_26	kmalloc
      14:	240501f0 	li	a1,496
      18:	10400005 	beqz	v0,30 <alloc_tty_struct+0x30>
      1c:	00408021 	move	s0,v0
      20:	00402021 	move	a0,v0
      24:	00002821 	move	a1,zero
      28:	0c000000 	jal	0 <alloc_tty_struct>
			28: R_MIPS_26	memset
      2c:	24060c38 	li	a2,3128
      30:	02001021 	move	v0,s0
      34:	8fbf0014 	lw	ra,20(sp)
      38:	8fb00010 	lw	s0,16(sp)
      3c:	03e00008 	jr	ra
      40:	27bd0018 	addiu	sp,sp,24

00000044 <_tty_make_name>:
      44:	27bdffe8 	addiu	sp,sp,-24
      48:	afbf0014 	sw	ra,20(sp)
      4c:	afb00010 	sw	s0,16(sp)
      50:	10800005 	beqz	a0,68 <_tty_make_name+0x24>
      54:	00c08021 	move	s0,a2
      58:	90830115 	lbu	v1,277(a0)
      5c:	84820016 	lh	v0,22(a0)
      60:	0800001b 	j	6c <_tty_make_name+0x28>
			60: R_MIPS_26	.text
      64:	00621823 	subu	v1,v1,v0
      68:	00001821 	move	v1,zero
      6c:	1480000b 	bnez	a0,9c <_tty_make_name+0x58>
      70:	00000000 	nop
      74:	3c020000 	lui	v0,0x0
			74: R_MIPS_HI16	.rodata
      78:	24420000 	addiu	v0,v0,0
			78: R_MIPS_LO16	.rodata
      7c:	02001821 	move	v1,s0
      80:	90410000 	lbu	at,0(v0)
      84:	24420001 	addiu	v0,v0,1
      88:	a0610000 	sb	at,0(v1)
      8c:	1420fffc 	bnez	at,80 <_tty_make_name+0x3c>
      90:	24630001 	addiu	v1,v1,1
      94:	0800002d 	j	b4 <_tty_make_name+0x70>
			94: R_MIPS_26	.text
      98:	02001021 	move	v0,s0
      9c:	8c860010 	lw	a2,16(a0)
      a0:	00000000 	nop
      a4:	00663021 	addu	a2,v1,a2
      a8:	0c000000 	jal	0 <alloc_tty_struct>
			a8: R_MIPS_26	sprintf
      ac:	02002021 	move	a0,s0
      b0:	02001021 	move	v0,s0
      b4:	8fbf0014 	lw	ra,20(sp)
      b8:	8fb00010 	lw	s0,16(sp)
      bc:	03e00008 	jr	ra
      c0:	27bd0018 	addiu	sp,sp,24

000000c4 <tty_name>:
      c4:	27bdffe8 	addiu	sp,sp,-24
      c8:	afbf0010 	sw	ra,16(sp)
      cc:	00a03021 	move	a2,a1
      d0:	10800002 	beqz	a0,dc <tty_name+0x18>
      d4:	00002821 	move	a1,zero
      d8:	8c85000c 	lw	a1,12(a0)
      dc:	0c000011 	jal	44 <_tty_make_name>
			dc: R_MIPS_26	.text
      e0:	00000000 	nop
      e4:	8fbf0010 	lw	ra,16(sp)
      e8:	00000000 	nop
      ec:	03e00008 	jr	ra
      f0:	27bd0018 	addiu	sp,sp,24

000000f4 <check_tty_count>:
      f4:	27bdffd8 	addiu	sp,sp,-40
      f8:	afbf0024 	sw	ra,36(sp)
      fc:	afb20020 	sw	s2,32(sp)
     100:	afb1001c 	sw	s1,28(sp)
     104:	afb00018 	sw	s0,24(sp)
     108:	00808021 	move	s0,a0
     10c:	00a09021 	move	s2,a1
     110:	8c8309ac 	lw	v1,2476(a0)
     114:	248209ac 	addiu	v0,a0,2476
     118:	1062000b 	beq	v1,v0,148 <check_tty_count+0x54>
     11c:	00008821 	move	s1,zero
     120:	00402021 	move	a0,v0
     124:	8c62005c 	lw	v0,92(v1)
     128:	00000000 	nop
     12c:	14500002 	bne	v0,s0,138 <check_tty_count+0x44>
     130:	00000000 	nop
     134:	26310001 	addiu	s1,s1,1
     138:	8c630000 	lw	v1,0(v1)
     13c:	00000000 	nop
     140:	1464fff8 	bne	v1,a0,124 <check_tty_count+0x30>
     144:	00000000 	nop
     148:	8603001a 	lh	v1,26(s0)
     14c:	24020004 	li	v0,4
     150:	1462000e 	bne	v1,v0,18c <check_tty_count+0x98>
     154:	24020002 	li	v0,2
     158:	8603001c 	lh	v1,28(s0)
     15c:	00000000 	nop
     160:	1462000a 	bne	v1,v0,18c <check_tty_count+0x98>
     164:	00000000 	nop
     168:	8e02012c 	lw	v0,300(s0)
     16c:	00000000 	nop
     170:	10400006 	beqz	v0,18c <check_tty_count+0x98>
     174:	00000000 	nop
     178:	8c42011c 	lw	v0,284(v0)
     17c:	00000000 	nop
     180:	10400002 	beqz	v0,18c <check_tty_count+0x98>
     184:	00000000 	nop
     188:	26310001 	addiu	s1,s1,1
     18c:	8e02011c 	lw	v0,284(s0)
     190:	00000000 	nop
     194:	1051000d 	beq	v0,s1,1cc <check_tty_count+0xd8>
     198:	00000000 	nop
     19c:	96040114 	lhu	a0,276(s0)
     1a0:	0c000000 	jal	0 <alloc_tty_struct>
			1a0: R_MIPS_26	kdevname
     1a4:	00000000 	nop
     1a8:	afb20010 	sw	s2,16(sp)
     1ac:	3c040000 	lui	a0,0x0
			1ac: R_MIPS_HI16	.rodata
     1b0:	2484000c 	addiu	a0,a0,12
			1b0: R_MIPS_LO16	.rodata
     1b4:	00402821 	move	a1,v0
     1b8:	8e06011c 	lw	a2,284(s0)
     1bc:	0c000000 	jal	0 <alloc_tty_struct>
			1bc: R_MIPS_26	printk
     1c0:	02203821 	move	a3,s1
     1c4:	08000074 	j	1d0 <check_tty_count+0xdc>
			1c4: R_MIPS_26	.text
     1c8:	02201021 	move	v0,s1
     1cc:	00001021 	move	v0,zero
     1d0:	8fbf0024 	lw	ra,36(sp)
     1d4:	8fb20020 	lw	s2,32(sp)
     1d8:	8fb1001c 	lw	s1,28(sp)
     1dc:	8fb00018 	lw	s0,24(sp)
     1e0:	03e00008 	jr	ra
     1e4:	27bd0028 	addiu	sp,sp,40

000001e8 <tty_register_ldisc>:
     1e8:	27bdffe8 	addiu	sp,sp,-24
     1ec:	afbf0010 	sw	ra,16(sp)
     1f0:	00803021 	move	a2,a0
     1f4:	2c820010 	sltiu	v0,a0,16
     1f8:	10400025 	beqz	v0,290 <tty_register_ldisc+0xa8>
     1fc:	2403ffea 	li	v1,-22
     200:	10a0001b 	beqz	a1,270 <tty_register_ldisc+0x88>
     204:	00041180 	sll	v0,a0,0x6
     208:	3c010000 	lui	at,0x0
			208: R_MIPS_HI16	ldiscs
     20c:	24210000 	addiu	at,at,0
			20c: R_MIPS_LO16	ldiscs
     210:	00221021 	addu	v0,at,v0
     214:	24a30040 	addiu	v1,a1,64
     218:	8ca40000 	lw	a0,0(a1)
     21c:	8ca70004 	lw	a3,4(a1)
     220:	8ca80008 	lw	t0,8(a1)
     224:	8ca9000c 	lw	t1,12(a1)
     228:	ac440000 	sw	a0,0(v0)
     22c:	ac470004 	sw	a3,4(v0)
     230:	ac480008 	sw	t0,8(v0)
     234:	ac49000c 	sw	t1,12(v0)
     238:	24a50010 	addiu	a1,a1,16
     23c:	14a3fff6 	bne	a1,v1,218 <tty_register_ldisc+0x30>
     240:	24420010 	addiu	v0,v0,16
     244:	3c030000 	lui	v1,0x0
			244: R_MIPS_HI16	ldiscs
     248:	24630004 	addiu	v1,v1,4
			248: R_MIPS_LO16	ldiscs
     24c:	00062980 	sll	a1,a2,0x6
     250:	00a32021 	addu	a0,a1,v1
     254:	8c820008 	lw	v0,8(a0)
     258:	00000000 	nop
     25c:	34420001 	ori	v0,v0,0x1
     260:	ac820008 	sw	v0,8(a0)
     264:	00651821 	addu	v1,v1,a1
     268:	080000a3 	j	28c <tty_register_ldisc+0xa4>
			268: R_MIPS_26	.text
     26c:	ac660004 	sw	a2,4(v1)
     270:	00042180 	sll	a0,a0,0x6
     274:	3c010000 	lui	at,0x0
			274: R_MIPS_HI16	ldiscs
     278:	24210000 	addiu	at,at,0
			278: R_MIPS_LO16	ldiscs
     27c:	00242021 	addu	a0,at,a0
     280:	00002821 	move	a1,zero
     284:	0c000000 	jal	0 <alloc_tty_struct>
			284: R_MIPS_26	memset
     288:	24060040 	li	a2,64
     28c:	00001821 	move	v1,zero
     290:	00601021 	move	v0,v1
     294:	8fbf0010 	lw	ra,16(sp)
     298:	00000000 	nop
     29c:	03e00008 	jr	ra
     2a0:	27bd0018 	addiu	sp,sp,24

000002a4 <tty_set_ldisc>:
     2a4:	27bdff40 	addiu	sp,sp,-192
     2a8:	afbf00b8 	sw	ra,184(sp)
     2ac:	afb300b4 	sw	s3,180(sp)
     2b0:	afb200b0 	sw	s2,176(sp)
     2b4:	afb100ac 	sw	s1,172(sp)
     2b8:	afb000a8 	sw	s0,168(sp)
     2bc:	00809021 	move	s2,a0
     2c0:	00a08821 	move	s1,a1
     2c4:	00009821 	move	s3,zero
     2c8:	2ca20010 	sltiu	v0,a1,16
     2cc:	10400097 	beqz	v0,52c <tty_set_ldisc+0x288>
     2d0:	2403ffea 	li	v1,-22
     2d4:	00051180 	sll	v0,a1,0x6
     2d8:	3c010000 	lui	at,0x0
			2d8: R_MIPS_HI16	ldiscs
     2dc:	00220821 	addu	at,at,v0
     2e0:	8c22000c 	lw	v0,12(at)
			2e0: R_MIPS_LO16	ldiscs
     2e4:	00000000 	nop
     2e8:	30420001 	andi	v0,v0,0x1
     2ec:	1440000a 	bnez	v0,318 <tty_set_ldisc+0x74>
     2f0:	00111180 	sll	v0,s1,0x6
     2f4:	27b00090 	addiu	s0,sp,144
     2f8:	02002021 	move	a0,s0
     2fc:	3c050000 	lui	a1,0x0
			2fc: R_MIPS_HI16	.rodata
     300:	24a50044 	addiu	a1,a1,68
			300: R_MIPS_LO16	.rodata
     304:	0c000000 	jal	0 <alloc_tty_struct>
			304: R_MIPS_26	sprintf
     308:	02203021 	move	a2,s1
     30c:	0c000000 	jal	0 <alloc_tty_struct>
			30c: R_MIPS_26	request_module
     310:	02002021 	move	a0,s0
     314:	00111180 	sll	v0,s1,0x6
     318:	3c010000 	lui	at,0x0
			318: R_MIPS_HI16	ldiscs
     31c:	00220821 	addu	at,at,v0
     320:	8c22000c 	lw	v0,12(at)
			320: R_MIPS_LO16	ldiscs
     324:	00000000 	nop
     328:	30420001 	andi	v0,v0,0x1
     32c:	1040007f 	beqz	v0,52c <tty_set_ldisc+0x288>
     330:	2403ffea 	li	v1,-22
     334:	8e4200cc 	lw	v0,204(s2)
     338:	00000000 	nop
     33c:	1051007b 	beq	v0,s1,52c <tty_set_ldisc+0x288>
     340:	00001821 	move	v1,zero
     344:	27a30010 	addiu	v1,sp,16
     348:	264200c4 	addiu	v0,s2,196
     34c:	26440104 	addiu	a0,s2,260
     350:	8c450000 	lw	a1,0(v0)
     354:	8c460004 	lw	a2,4(v0)
     358:	8c470008 	lw	a3,8(v0)
     35c:	8c48000c 	lw	t0,12(v0)
     360:	ac650000 	sw	a1,0(v1)
     364:	ac660004 	sw	a2,4(v1)
     368:	ac670008 	sw	a3,8(v1)
     36c:	ac68000c 	sw	t0,12(v1)
     370:	24420010 	addiu	v0,v0,16
     374:	1444fff6 	bne	v0,a0,350 <tty_set_ldisc+0xac>
     378:	24630010 	addiu	v1,v1,16
     37c:	02402021 	move	a0,s2
     380:	0c000000 	jal	0 <alloc_tty_struct>
			380: R_MIPS_26	tty_wait_until_sent
     384:	00002821 	move	a1,zero
     388:	8e4200d8 	lw	v0,216(s2)
     38c:	00000000 	nop
     390:	10400003 	beqz	v0,3a0 <tty_set_ldisc+0xfc>
     394:	00000000 	nop
     398:	0040f809 	jalr	v0
     39c:	02402021 	move	a0,s2
     3a0:	00111180 	sll	v0,s1,0x6
     3a4:	264300c4 	addiu	v1,s2,196
     3a8:	3c010000 	lui	at,0x0
			3a8: R_MIPS_HI16	ldiscs
     3ac:	24210000 	addiu	at,at,0
			3ac: R_MIPS_LO16	ldiscs
     3b0:	00221021 	addu	v0,at,v0
     3b4:	24440040 	addiu	a0,v0,64
     3b8:	8c450000 	lw	a1,0(v0)
     3bc:	8c460004 	lw	a2,4(v0)
     3c0:	8c470008 	lw	a3,8(v0)
     3c4:	8c48000c 	lw	t0,12(v0)
     3c8:	ac650000 	sw	a1,0(v1)
     3cc:	ac660004 	sw	a2,4(v1)
     3d0:	ac670008 	sw	a3,8(v1)
     3d4:	ac68000c 	sw	t0,12(v1)
     3d8:	24420010 	addiu	v0,v0,16
     3dc:	1444fff6 	bne	v0,a0,3b8 <tty_set_ldisc+0x114>
     3e0:	24630010 	addiu	v1,v1,16
     3e4:	8e420104 	lw	v0,260(s2)
     3e8:	00000000 	nop
     3ec:	a0510010 	sb	s1,16(v0)
     3f0:	8e4200d4 	lw	v0,212(s2)
     3f4:	00000000 	nop
     3f8:	10400004 	beqz	v0,40c <tty_set_ldisc+0x168>
     3fc:	00000000 	nop
     400:	0040f809 	jalr	v0
     404:	02402021 	move	a0,s2
     408:	00409821 	move	s3,v0
     40c:	0661003b 	bgez	s3,4fc <tty_set_ldisc+0x258>
     410:	264200c4 	addiu	v0,s2,196
     414:	27a30010 	addiu	v1,sp,16
     418:	27a40050 	addiu	a0,sp,80
     41c:	8c650000 	lw	a1,0(v1)
     420:	8c660004 	lw	a2,4(v1)
     424:	8c670008 	lw	a3,8(v1)
     428:	8c68000c 	lw	t0,12(v1)
     42c:	ac450000 	sw	a1,0(v0)
     430:	ac460004 	sw	a2,4(v0)
     434:	ac470008 	sw	a3,8(v0)
     438:	ac48000c 	sw	t0,12(v0)
     43c:	24630010 	addiu	v1,v1,16
     440:	1464fff6 	bne	v1,a0,41c <tty_set_ldisc+0x178>
     444:	24420010 	addiu	v0,v0,16
     448:	8e430104 	lw	v1,260(s2)
     44c:	924200cf 	lbu	v0,207(s2)
     450:	00000000 	nop
     454:	a0620010 	sb	v0,16(v1)
     458:	8e4200d4 	lw	v0,212(s2)
     45c:	00000000 	nop
     460:	10400026 	beqz	v0,4fc <tty_set_ldisc+0x258>
     464:	00000000 	nop
     468:	0040f809 	jalr	v0
     46c:	02402021 	move	a0,s2
     470:	04410022 	bgez	v0,4fc <tty_set_ldisc+0x258>
     474:	264200c4 	addiu	v0,s2,196
     478:	3c030000 	lui	v1,0x0
			478: R_MIPS_HI16	ldiscs
     47c:	24630000 	addiu	v1,v1,0
			47c: R_MIPS_LO16	ldiscs
     480:	24640040 	addiu	a0,v1,64
     484:	8c650000 	lw	a1,0(v1)
     488:	8c660004 	lw	a2,4(v1)
     48c:	8c670008 	lw	a3,8(v1)
     490:	8c68000c 	lw	t0,12(v1)
     494:	ac450000 	sw	a1,0(v0)
     498:	ac460004 	sw	a2,4(v0)
     49c:	ac470008 	sw	a3,8(v0)
     4a0:	ac48000c 	sw	t0,12(v0)
     4a4:	24630010 	addiu	v1,v1,16
     4a8:	1464fff6 	bne	v1,a0,484 <tty_set_ldisc+0x1e0>
     4ac:	24420010 	addiu	v0,v0,16
     4b0:	8e420104 	lw	v0,260(s2)
     4b4:	00000000 	nop
     4b8:	a0400010 	sb	zero,16(v0)
     4bc:	8e4200d4 	lw	v0,212(s2)
     4c0:	00000000 	nop
     4c4:	1040000d 	beqz	v0,4fc <tty_set_ldisc+0x258>
     4c8:	00000000 	nop
     4cc:	0040f809 	jalr	v0
     4d0:	02402021 	move	a0,s2
     4d4:	04410009 	bgez	v0,4fc <tty_set_ldisc+0x258>
     4d8:	00408021 	move	s0,v0
     4dc:	02402021 	move	a0,s2
     4e0:	0c000000 	jal	0 <alloc_tty_struct>
			4e0: R_MIPS_26	tty_name
     4e4:	27a50050 	addiu	a1,sp,80
     4e8:	3c040000 	lui	a0,0x0
			4e8: R_MIPS_HI16	.rodata
     4ec:	24840054 	addiu	a0,a0,84
			4ec: R_MIPS_LO16	.rodata
     4f0:	00402821 	move	a1,v0
     4f4:	0c000000 	jal	0 <alloc_tty_struct>
			4f4: R_MIPS_26	panic
     4f8:	02003021 	move	a2,s0
     4fc:	8e4300cc 	lw	v1,204(s2)
     500:	8fa20018 	lw	v0,24(sp)
     504:	00000000 	nop
     508:	10620008 	beq	v1,v0,52c <tty_set_ldisc+0x288>
     50c:	02601821 	move	v1,s3
     510:	8e4200a8 	lw	v0,168(s2)
     514:	00000000 	nop
     518:	10400004 	beqz	v0,52c <tty_set_ldisc+0x288>
     51c:	00000000 	nop
     520:	0040f809 	jalr	v0
     524:	02402021 	move	a0,s2
     528:	02601821 	move	v1,s3
     52c:	00601021 	move	v0,v1
     530:	8fbf00b8 	lw	ra,184(sp)
     534:	8fb300b4 	lw	s3,180(sp)
     538:	8fb200b0 	lw	s2,176(sp)
     53c:	8fb100ac 	lw	s1,172(sp)
     540:	8fb000a8 	lw	s0,168(sp)
     544:	03e00008 	jr	ra
     548:	27bd00c0 	addiu	sp,sp,192

0000054c <get_tty_driver>:
     54c:	3084ffff 	andi	a0,a0,0xffff
     550:	308600ff 	andi	a2,a0,0xff
     554:	3c030000 	lui	v1,0x0
			554: R_MIPS_HI16	tty_drivers
     558:	8c630000 	lw	v1,0(v1)
			558: R_MIPS_LO16	tty_drivers
     55c:	00000000 	nop
     560:	10600014 	beqz	v1,5b4 <get_tty_driver+0x68>
     564:	00042202 	srl	a0,a0,0x8
     568:	84620010 	lh	v0,16(v1)
     56c:	00000000 	nop
     570:	1444000c 	bne	v0,a0,5a4 <get_tty_driver+0x58>
     574:	00000000 	nop
     578:	84650012 	lh	a1,18(v1)
     57c:	00000000 	nop
     580:	00c5102a 	slt	v0,a2,a1
     584:	14400007 	bnez	v0,5a4 <get_tty_driver+0x58>
     588:	00000000 	nop
     58c:	84620014 	lh	v0,20(v1)
     590:	00000000 	nop
     594:	00a21021 	addu	v0,a1,v0
     598:	00c2102a 	slt	v0,a2,v0
     59c:	14400006 	bnez	v0,5b8 <get_tty_driver+0x6c>
     5a0:	00602821 	move	a1,v1
     5a4:	8c6300b8 	lw	v1,184(v1)
     5a8:	00000000 	nop
     5ac:	1460ffee 	bnez	v1,568 <get_tty_driver+0x1c>
     5b0:	00000000 	nop
     5b4:	00002821 	move	a1,zero
     5b8:	03e00008 	jr	ra
     5bc:	00a01021 	move	v0,a1

000005c0 <tty_check_change>:
     5c0:	27bdffe8 	addiu	sp,sp,-24
     5c4:	afbf0010 	sw	ra,16(sp)
     5c8:	8f820258 	lw	v0,600(gp)
     5cc:	00000000 	nop
     5d0:	1444001c 	bne	v0,a0,644 <tty_check_change+0x84>
     5d4:	00002821 	move	a1,zero
     5d8:	8c82010c 	lw	v0,268(a0)
     5dc:	00000000 	nop
     5e0:	1c400006 	bgtz	v0,5fc <tty_check_change+0x3c>
     5e4:	00000000 	nop
     5e8:	3c040000 	lui	a0,0x0
			5e8: R_MIPS_HI16	.rodata
     5ec:	0c000000 	jal	0 <alloc_tty_struct>
			5ec: R_MIPS_26	printk
     5f0:	24840084 	addiu	a0,a0,132
			5f0: R_MIPS_LO16	.rodata
     5f4:	08000191 	j	644 <tty_check_change+0x84>
			5f4: R_MIPS_26	.text
     5f8:	00002821 	move	a1,zero
     5fc:	8f830080 	lw	v1,128(gp)
     600:	00000000 	nop
     604:	1062000f 	beq	v1,v0,644 <tty_check_change+0x84>
     608:	00002821 	move	a1,zero
     60c:	0c000000 	jal	0 <alloc_tty_struct>
			60c: R_MIPS_26	is_ignored
     610:	2404001b 	li	a0,27
     614:	1440000b 	bnez	v0,644 <tty_check_change+0x84>
     618:	00002821 	move	a1,zero
     61c:	8f840080 	lw	a0,128(gp)
     620:	0c000000 	jal	0 <alloc_tty_struct>
			620: R_MIPS_26	is_orphaned_pgrp
     624:	00000000 	nop
     628:	14400006 	bnez	v0,644 <tty_check_change+0x84>
     62c:	2405fffb 	li	a1,-5
     630:	8f840080 	lw	a0,128(gp)
     634:	2405001b 	li	a1,27
     638:	0c000000 	jal	0 <alloc_tty_struct>
			638: R_MIPS_26	kill_pg
     63c:	24060001 	li	a2,1
     640:	2405fe00 	li	a1,-512
     644:	00a01021 	move	v0,a1
     648:	8fbf0010 	lw	ra,16(sp)
     64c:	00000000 	nop
     650:	03e00008 	jr	ra
     654:	27bd0018 	addiu	sp,sp,24

00000658 <hung_up_tty_read>:
     658:	24840020 	addiu	a0,a0,32
     65c:	14e40002 	bne	a3,a0,668 <hung_up_tty_read+0x10>
     660:	2402ffe3 	li	v0,-29
     664:	00001021 	move	v0,zero
     668:	03e00008 	jr	ra
     66c:	00000000 	nop

00000670 <hung_up_tty_write>:
     670:	24840020 	addiu	a0,a0,32
     674:	14e40002 	bne	a3,a0,680 <hung_up_tty_write+0x10>
     678:	2402ffe3 	li	v0,-29
     67c:	2402fffb 	li	v0,-5
     680:	03e00008 	jr	ra
     684:	00000000 	nop

00000688 <hung_up_tty_poll>:
     688:	03e00008 	jr	ra
     68c:	2402005d 	li	v0,93

00000690 <hung_up_tty_ioctl>:
     690:	3c028004 	lui	v0,0x8004
     694:	34427476 	ori	v0,v0,0x7476
     698:	10c20002 	beq	a2,v0,6a4 <hung_up_tty_ioctl+0x14>
     69c:	2403ffe7 	li	v1,-25
     6a0:	2403fffb 	li	v1,-5
     6a4:	03e00008 	jr	ra
     6a8:	00601021 	move	v0,v1

000006ac <do_tty_hangup>:
     6ac:	27bdffc8 	addiu	sp,sp,-56
     6b0:	afbf0034 	sw	ra,52(sp)
     6b4:	afbe0030 	sw	s8,48(sp)
     6b8:	afb7002c 	sw	s7,44(sp)
     6bc:	afb60028 	sw	s6,40(sp)
     6c0:	afb50024 	sw	s5,36(sp)
     6c4:	afb40020 	sw	s4,32(sp)
     6c8:	afb3001c 	sw	s3,28(sp)
     6cc:	afb20018 	sw	s2,24(sp)
     6d0:	afb10014 	sw	s1,20(sp)
     6d4:	afb00010 	sw	s0,16(sp)
     6d8:	00809021 	move	s2,a0
     6dc:	0000b821 	move	s7,zero
     6e0:	108000de 	beqz	a0,a5c <do_tty_hangup+0x3b0>
     6e4:	0000f021 	move	s8,zero
     6e8:	3c050000 	lui	a1,0x0
			6e8: R_MIPS_HI16	.rodata
     6ec:	0c00003d 	jal	f4 <check_tty_count>
			6ec: R_MIPS_26	.text
     6f0:	24a500ac 	addiu	a1,a1,172
			6f0: R_MIPS_LO16	.rodata
     6f4:	8e5009ac 	lw	s0,2476(s2)
     6f8:	264209ac 	addiu	v0,s2,2476
     6fc:	12020021 	beq	s0,v0,784 <do_tty_hangup+0xd8>
     700:	00000000 	nop
     704:	24140400 	li	s4,1024
     708:	24150501 	li	s5,1281
     70c:	3c160000 	lui	s6,0x0
			70c: R_MIPS_HI16	.data
     710:	26d60000 	addiu	s6,s6,0
			710: R_MIPS_LO16	.data
     714:	00409821 	move	s3,v0
     718:	8e020008 	lw	v0,8(s0)
     71c:	00000000 	nop
     720:	8c420008 	lw	v0,8(v0)
     724:	00000000 	nop
     728:	94420040 	lhu	v0,64(v0)
     72c:	00000000 	nop
     730:	10540003 	beq	v0,s4,740 <do_tty_hangup+0x94>
     734:	02008821 	move	s1,s0
     738:	14550003 	bne	v0,s5,748 <do_tty_hangup+0x9c>
     73c:	00000000 	nop
     740:	080001dd 	j	774 <do_tty_hangup+0xc8>
			740: R_MIPS_26	.text
     744:	0220b821 	move	s7,s1
     748:	8e020010 	lw	v0,16(s0)
     74c:	00000000 	nop
     750:	14560008 	bne	v0,s6,774 <do_tty_hangup+0xc8>
     754:	2404ffff 	li	a0,-1
     758:	27de0001 	addiu	s8,s8,1
     75c:	02002821 	move	a1,s0
     760:	0c000960 	jal	2580 <tty_fasync>
			760: R_MIPS_26	.text
     764:	00003021 	move	a2,zero
     768:	3c020000 	lui	v0,0x0
			768: R_MIPS_HI16	.data
     76c:	24420048 	addiu	v0,v0,72
			76c: R_MIPS_LO16	.data
     770:	ae020010 	sw	v0,16(s0)
     774:	8e100000 	lw	s0,0(s0)
     778:	00000000 	nop
     77c:	1613ffe6 	bne	s0,s3,718 <do_tty_hangup+0x6c>
     780:	00000000 	nop
     784:	40106000 	mfc0	s0,$12
     788:	40016000 	mfc0	at,$12
     78c:	00000000 	nop
     790:	34210001 	ori	at,at,0x1
     794:	38210001 	xori	at,at,0x1
     798:	40816000 	mtc0	at,$12
     79c:	00000040 	sll	zero,zero,0x1
     7a0:	00000040 	sll	zero,zero,0x1
     7a4:	00000040 	sll	zero,zero,0x1
     7a8:	8e4200dc 	lw	v0,220(s2)
     7ac:	00000000 	nop
     7b0:	10400003 	beqz	v0,7c0 <do_tty_hangup+0x114>
     7b4:	00000000 	nop
     7b8:	0040f809 	jalr	v0
     7bc:	02402021 	move	a0,s2
     7c0:	8e4200a4 	lw	v0,164(s2)
     7c4:	00000000 	nop
     7c8:	10400003 	beqz	v0,7d8 <do_tty_hangup+0x12c>
     7cc:	00000000 	nop
     7d0:	0040f809 	jalr	v0
     7d4:	02402021 	move	a0,s2
     7d8:	8e420118 	lw	v0,280(s2)
     7dc:	00000000 	nop
     7e0:	00021142 	srl	v0,v0,0x5
     7e4:	30420001 	andi	v0,v0,0x1
     7e8:	10400007 	beqz	v0,808 <do_tty_hangup+0x15c>
     7ec:	00000000 	nop
     7f0:	8e420100 	lw	v0,256(s2)
     7f4:	00000000 	nop
     7f8:	10400003 	beqz	v0,808 <do_tty_hangup+0x15c>
     7fc:	00000000 	nop
     800:	0040f809 	jalr	v0
     804:	02402021 	move	a0,s2
     808:	40016000 	mfc0	at,$12
     80c:	32100001 	andi	s0,s0,0x1
     810:	34210001 	ori	at,at,0x1
     814:	38210001 	xori	at,at,0x1
     818:	02018025 	or	s0,s0,at
     81c:	40906000 	mtc0	s0,$12
     820:	00000040 	sll	zero,zero,0x1
     824:	00000040 	sll	zero,zero,0x1
     828:	00000040 	sll	zero,zero,0x1
     82c:	26440980 	addiu	a0,s2,2432
     830:	24050001 	li	a1,1
     834:	0c000000 	jal	0 <alloc_tty_struct>
			834: R_MIPS_26	__wake_up
     838:	24060001 	li	a2,1
     83c:	26440988 	addiu	a0,s2,2440
     840:	24050001 	li	a1,1
     844:	0c000000 	jal	0 <alloc_tty_struct>
			844: R_MIPS_26	__wake_up
     848:	24060001 	li	a2,1
     84c:	8e420048 	lw	v0,72(s2)
     850:	00000000 	nop
     854:	30420002 	andi	v0,v0,0x2
     858:	10400012 	beqz	v0,8a4 <do_tty_hangup+0x1f8>
     85c:	26420020 	addiu	v0,s2,32
     860:	8e430104 	lw	v1,260(s2)
     864:	26440040 	addiu	a0,s2,64
     868:	8c450000 	lw	a1,0(v0)
     86c:	8c460004 	lw	a2,4(v0)
     870:	8c470008 	lw	a3,8(v0)
     874:	8c48000c 	lw	t0,12(v0)
     878:	ac650000 	sw	a1,0(v1)
     87c:	ac660004 	sw	a2,4(v1)
     880:	ac670008 	sw	a3,8(v1)
     884:	ac68000c 	sw	t0,12(v1)
     888:	24420010 	addiu	v0,v0,16
     88c:	1444fff6 	bne	v0,a0,868 <do_tty_hangup+0x1bc>
     890:	24630010 	addiu	v1,v1,16
     894:	8c440000 	lw	a0,0(v0)
     898:	8c450004 	lw	a1,4(v0)
     89c:	ac640000 	sw	a0,0(v1)
     8a0:	ac650004 	sw	a1,4(v1)
     8a4:	8e4300cc 	lw	v1,204(s2)
     8a8:	3c020000 	lui	v0,0x0
			8a8: R_MIPS_HI16	ldiscs
     8ac:	8c420008 	lw	v0,8(v0)
			8ac: R_MIPS_LO16	ldiscs
     8b0:	00000000 	nop
     8b4:	10620025 	beq	v1,v0,94c <do_tty_hangup+0x2a0>
     8b8:	00000000 	nop
     8bc:	8e4200d8 	lw	v0,216(s2)
     8c0:	00000000 	nop
     8c4:	10400003 	beqz	v0,8d4 <do_tty_hangup+0x228>
     8c8:	00000000 	nop
     8cc:	0040f809 	jalr	v0
     8d0:	02402021 	move	a0,s2
     8d4:	264200c4 	addiu	v0,s2,196
     8d8:	3c030000 	lui	v1,0x0
			8d8: R_MIPS_HI16	ldiscs
     8dc:	24630000 	addiu	v1,v1,0
			8dc: R_MIPS_LO16	ldiscs
     8e0:	24640040 	addiu	a0,v1,64
     8e4:	8c680000 	lw	t0,0(v1)
     8e8:	8c650004 	lw	a1,4(v1)
     8ec:	8c660008 	lw	a2,8(v1)
     8f0:	8c67000c 	lw	a3,12(v1)
     8f4:	ac480000 	sw	t0,0(v0)
     8f8:	ac450004 	sw	a1,4(v0)
     8fc:	ac460008 	sw	a2,8(v0)
     900:	ac47000c 	sw	a3,12(v0)
     904:	24630010 	addiu	v1,v1,16
     908:	1464fff6 	bne	v1,a0,8e4 <do_tty_hangup+0x238>
     90c:	24420010 	addiu	v0,v0,16
     910:	8e420104 	lw	v0,260(s2)
     914:	00000000 	nop
     918:	a0400010 	sb	zero,16(v0)
     91c:	8e4200d4 	lw	v0,212(s2)
     920:	00000000 	nop
     924:	10400009 	beqz	v0,94c <do_tty_hangup+0x2a0>
     928:	00000000 	nop
     92c:	0040f809 	jalr	v0
     930:	02402021 	move	a0,s2
     934:	04410005 	bgez	v0,94c <do_tty_hangup+0x2a0>
     938:	00000000 	nop
     93c:	3c040000 	lui	a0,0x0
			93c: R_MIPS_HI16	.rodata
     940:	248400bc 	addiu	a0,a0,188
			940: R_MIPS_LO16	.rodata
     944:	0c000000 	jal	0 <alloc_tty_struct>
			944: R_MIPS_26	printk
     948:	00022823 	negu	a1,v0
     94c:	3c100000 	lui	s0,0x0
			94c: R_MIPS_HI16	init_task_union
     950:	8e100048 	lw	s0,72(s0)
			950: R_MIPS_LO16	init_task_union
     954:	3c020000 	lui	v0,0x0
			954: R_MIPS_HI16	init_task_union
     958:	24420000 	addiu	v0,v0,0
			958: R_MIPS_LO16	init_task_union
     95c:	12020023 	beq	s0,v0,9ec <do_tty_hangup+0x340>
     960:	00000000 	nop
     964:	00408821 	move	s1,v0
     968:	8e430110 	lw	v1,272(s2)
     96c:	00000000 	nop
     970:	18600015 	blez	v1,9c8 <do_tty_hangup+0x31c>
     974:	00000000 	nop
     978:	8e020088 	lw	v0,136(s0)
     97c:	00000000 	nop
     980:	14430011 	bne	v0,v1,9c8 <do_tty_hangup+0x31c>
     984:	00000000 	nop
     988:	8e020090 	lw	v0,144(s0)
     98c:	00000000 	nop
     990:	1040000d 	beqz	v0,9c8 <do_tty_hangup+0x31c>
     994:	24040001 	li	a0,1
     998:	02002821 	move	a1,s0
     99c:	0c000000 	jal	0 <alloc_tty_struct>
			99c: R_MIPS_26	send_sig
     9a0:	24060001 	li	a2,1
     9a4:	24040019 	li	a0,25
     9a8:	02002821 	move	a1,s0
     9ac:	0c000000 	jal	0 <alloc_tty_struct>
			9ac: R_MIPS_26	send_sig
     9b0:	24060001 	li	a2,1
     9b4:	8e42010c 	lw	v0,268(s2)
     9b8:	00000000 	nop
     9bc:	18400002 	blez	v0,9c8 <do_tty_hangup+0x31c>
     9c0:	00000000 	nop
     9c4:	ae020084 	sw	v0,132(s0)
     9c8:	8e020258 	lw	v0,600(s0)
     9cc:	00000000 	nop
     9d0:	14520002 	bne	v0,s2,9dc <do_tty_hangup+0x330>
     9d4:	00000000 	nop
     9d8:	ae000258 	sw	zero,600(s0)
     9dc:	8e100048 	lw	s0,72(s0)
     9e0:	00000000 	nop
     9e4:	1611ffe0 	bne	s0,s1,968 <do_tty_hangup+0x2bc>
     9e8:	00000000 	nop
     9ec:	ae400118 	sw	zero,280(s2)
     9f0:	ae400110 	sw	zero,272(s2)
     9f4:	2402ffff 	li	v0,-1
     9f8:	ae42010c 	sw	v0,268(s2)
     9fc:	12e00011 	beqz	s7,a44 <do_tty_hangup+0x398>
     a00:	a2400129 	sb	zero,297(s2)
     a04:	8e42006c 	lw	v0,108(s2)
     a08:	00000000 	nop
     a0c:	10400013 	beqz	v0,a5c <do_tty_hangup+0x3b0>
     a10:	00000000 	nop
     a14:	1bc00011 	blez	s8,a5c <do_tty_hangup+0x3b0>
     a18:	00008021 	move	s0,zero
     a1c:	8e42006c 	lw	v0,108(s2)
     a20:	02402021 	move	a0,s2
     a24:	0040f809 	jalr	v0
     a28:	02e02821 	move	a1,s7
     a2c:	26100001 	addiu	s0,s0,1
     a30:	021e102a 	slt	v0,s0,s8
     a34:	10400009 	beqz	v0,a5c <do_tty_hangup+0x3b0>
     a38:	00000000 	nop
     a3c:	08000287 	j	a1c <do_tty_hangup+0x370>
			a3c: R_MIPS_26	.text
     a40:	00000000 	nop
     a44:	8e42009c 	lw	v0,156(s2)
     a48:	00000000 	nop
     a4c:	10400003 	beqz	v0,a5c <do_tty_hangup+0x3b0>
     a50:	00000000 	nop
     a54:	0040f809 	jalr	v0
     a58:	02402021 	move	a0,s2
     a5c:	8fbf0034 	lw	ra,52(sp)
     a60:	8fbe0030 	lw	s8,48(sp)
     a64:	8fb7002c 	lw	s7,44(sp)
     a68:	8fb60028 	lw	s6,40(sp)
     a6c:	8fb50024 	lw	s5,36(sp)
     a70:	8fb40020 	lw	s4,32(sp)
     a74:	8fb3001c 	lw	s3,28(sp)
     a78:	8fb20018 	lw	s2,24(sp)
     a7c:	8fb10014 	lw	s1,20(sp)
     a80:	8fb00010 	lw	s0,16(sp)
     a84:	03e00008 	jr	ra
     a88:	27bd0038 	addiu	sp,sp,56

00000a8c <tty_hangup>:
     a8c:	27bdffe8 	addiu	sp,sp,-24
     a90:	afbf0010 	sw	ra,16(sp)
     a94:	0c000000 	jal	0 <alloc_tty_struct>
			a94: R_MIPS_26	schedule_task
     a98:	24840990 	addiu	a0,a0,2448
     a9c:	8fbf0010 	lw	ra,16(sp)
     aa0:	00000000 	nop
     aa4:	03e00008 	jr	ra
     aa8:	27bd0018 	addiu	sp,sp,24

00000aac <tty_vhangup>:
     aac:	27bdffe8 	addiu	sp,sp,-24
     ab0:	afbf0010 	sw	ra,16(sp)
     ab4:	0c000000 	jal	0 <alloc_tty_struct>
			ab4: R_MIPS_26	do_tty_hangup
     ab8:	00000000 	nop
     abc:	8fbf0010 	lw	ra,16(sp)
     ac0:	00000000 	nop
     ac4:	03e00008 	jr	ra
     ac8:	27bd0018 	addiu	sp,sp,24

00000acc <tty_hung_up_p>:
     acc:	8c820010 	lw	v0,16(a0)
     ad0:	3c030000 	lui	v1,0x0
			ad0: R_MIPS_HI16	.data
     ad4:	24630048 	addiu	v1,v1,72
			ad4: R_MIPS_LO16	.data
     ad8:	00431026 	xor	v0,v0,v1
     adc:	03e00008 	jr	ra
     ae0:	2c420001 	sltiu	v0,v0,1

00000ae4 <disassociate_ctty>:
     ae4:	27bdffe0 	addiu	sp,sp,-32
     ae8:	afbf001c 	sw	ra,28(sp)
     aec:	afb20018 	sw	s2,24(sp)
     af0:	afb10014 	sw	s1,20(sp)
     af4:	afb00010 	sw	s0,16(sp)
     af8:	8f900258 	lw	s0,600(gp)
     afc:	00000000 	nop
     b00:	1200000c 	beqz	s0,b34 <disassociate_ctty+0x50>
     b04:	00809021 	move	s2,a0
     b08:	8e11010c 	lw	s1,268(s0)
     b0c:	10800017 	beqz	a0,b6c <disassociate_ctty+0x88>
     b10:	24020004 	li	v0,4
     b14:	8603001a 	lh	v1,26(s0)
     b18:	00000000 	nop
     b1c:	10620013 	beq	v1,v0,b6c <disassociate_ctty+0x88>
     b20:	00000000 	nop
     b24:	0c000000 	jal	0 <alloc_tty_struct>
			b24: R_MIPS_26	tty_vhangup
     b28:	02002021 	move	a0,s0
     b2c:	080002db 	j	b6c <disassociate_ctty+0x88>
			b2c: R_MIPS_26	.text
     b30:	00000000 	nop
     b34:	8f820084 	lw	v0,132(gp)
     b38:	00000000 	nop
     b3c:	1040002a 	beqz	v0,be8 <disassociate_ctty+0x104>
     b40:	00000000 	nop
     b44:	00402021 	move	a0,v0
     b48:	24050001 	li	a1,1
     b4c:	0c000000 	jal	0 <alloc_tty_struct>
			b4c: R_MIPS_26	kill_pg
     b50:	02403021 	move	a2,s2
     b54:	8f840084 	lw	a0,132(gp)
     b58:	24050019 	li	a1,25
     b5c:	0c000000 	jal	0 <alloc_tty_struct>
			b5c: R_MIPS_26	kill_pg
     b60:	02403021 	move	a2,s2
     b64:	080002fa 	j	be8 <disassociate_ctty+0x104>
			b64: R_MIPS_26	.text
     b68:	00000000 	nop
     b6c:	1a200009 	blez	s1,b94 <disassociate_ctty+0xb0>
     b70:	02202021 	move	a0,s1
     b74:	24050001 	li	a1,1
     b78:	0c000000 	jal	0 <alloc_tty_struct>
			b78: R_MIPS_26	kill_pg
     b7c:	02403021 	move	a2,s2
     b80:	16400004 	bnez	s2,b94 <disassociate_ctty+0xb0>
     b84:	02202021 	move	a0,s1
     b88:	24050019 	li	a1,25
     b8c:	0c000000 	jal	0 <alloc_tty_struct>
			b8c: R_MIPS_26	kill_pg
     b90:	00003021 	move	a2,zero
     b94:	af800084 	sw	zero,132(gp)
     b98:	ae000110 	sw	zero,272(s0)
     b9c:	2402ffff 	li	v0,-1
     ba0:	ae02010c 	sw	v0,268(s0)
     ba4:	3c030000 	lui	v1,0x0
			ba4: R_MIPS_HI16	init_task_union
     ba8:	8c630048 	lw	v1,72(v1)
			ba8: R_MIPS_LO16	init_task_union
     bac:	3c020000 	lui	v0,0x0
			bac: R_MIPS_HI16	init_task_union
     bb0:	24420000 	addiu	v0,v0,0
			bb0: R_MIPS_LO16	init_task_union
     bb4:	1062000c 	beq	v1,v0,be8 <disassociate_ctty+0x104>
     bb8:	00000000 	nop
     bbc:	8f840088 	lw	a0,136(gp)
     bc0:	00402821 	move	a1,v0
     bc4:	8c620088 	lw	v0,136(v1)
     bc8:	00000000 	nop
     bcc:	14440002 	bne	v0,a0,bd8 <disassociate_ctty+0xf4>
     bd0:	00000000 	nop
     bd4:	ac600258 	sw	zero,600(v1)
     bd8:	8c630048 	lw	v1,72(v1)
     bdc:	00000000 	nop
     be0:	1465fff8 	bne	v1,a1,bc4 <disassociate_ctty+0xe0>
     be4:	00000000 	nop
     be8:	8fbf001c 	lw	ra,28(sp)
     bec:	8fb20018 	lw	s2,24(sp)
     bf0:	8fb10014 	lw	s1,20(sp)
     bf4:	8fb00010 	lw	s0,16(sp)
     bf8:	03e00008 	jr	ra
     bfc:	27bd0020 	addiu	sp,sp,32

00000c00 <stop_tty>:
     c00:	27bdffe8 	addiu	sp,sp,-24
     c04:	afbf0014 	sw	ra,20(sp)
     c08:	afb00010 	sw	s0,16(sp)
     c0c:	8c830128 	lw	v1,296(a0)
     c10:	00000000 	nop
     c14:	0460001b 	bltz	v1,c84 <stop_tty+0x84>
     c18:	00808021 	move	s0,a0
     c1c:	3c028000 	lui	v0,0x8000
     c20:	00621025 	or	v0,v1,v0
     c24:	ac820128 	sw	v0,296(a0)
     c28:	8c84012c 	lw	a0,300(a0)
     c2c:	00000000 	nop
     c30:	1080000e 	beqz	a0,c6c <stop_tty+0x6c>
     c34:	3c031000 	lui	v1,0x1000
     c38:	8c820128 	lw	v0,296(a0)
     c3c:	00000000 	nop
     c40:	00431024 	and	v0,v0,v1
     c44:	10400009 	beqz	v0,c6c <stop_tty+0x6c>
     c48:	24840988 	addiu	a0,a0,2440
     c4c:	92020129 	lbu	v0,297(s0)
     c50:	00000000 	nop
     c54:	304200f7 	andi	v0,v0,0xf7
     c58:	34420004 	ori	v0,v0,0x4
     c5c:	a2020129 	sb	v0,297(s0)
     c60:	24050001 	li	a1,1
     c64:	0c000000 	jal	0 <alloc_tty_struct>
			c64: R_MIPS_26	__wake_up
     c68:	24060001 	li	a2,1
     c6c:	8e020094 	lw	v0,148(s0)
     c70:	00000000 	nop
     c74:	10400003 	beqz	v0,c84 <stop_tty+0x84>
     c78:	00000000 	nop
     c7c:	0040f809 	jalr	v0
     c80:	02002021 	move	a0,s0
     c84:	8fbf0014 	lw	ra,20(sp)
     c88:	8fb00010 	lw	s0,16(sp)
     c8c:	03e00008 	jr	ra
     c90:	27bd0018 	addiu	sp,sp,24

00000c94 <start_tty>:
     c94:	27bdffe8 	addiu	sp,sp,-24
     c98:	afbf0014 	sw	ra,20(sp)
     c9c:	afb00010 	sw	s0,16(sp)
     ca0:	00808021 	move	s0,a0
     ca4:	8c840128 	lw	a0,296(a0)
     ca8:	3c02a000 	lui	v0,0xa000
     cac:	00821024 	and	v0,a0,v0
     cb0:	3c038000 	lui	v1,0x8000
     cb4:	1443002b 	bne	v0,v1,d64 <start_tty+0xd0>
     cb8:	3c027fff 	lui	v0,0x7fff
     cbc:	3442ffff 	ori	v0,v0,0xffff
     cc0:	00821024 	and	v0,a0,v0
     cc4:	ae020128 	sw	v0,296(s0)
     cc8:	8e04012c 	lw	a0,300(s0)
     ccc:	00000000 	nop
     cd0:	1080000e 	beqz	a0,d0c <start_tty+0x78>
     cd4:	3c031000 	lui	v1,0x1000
     cd8:	8c820128 	lw	v0,296(a0)
     cdc:	00000000 	nop
     ce0:	00431024 	and	v0,v0,v1
     ce4:	10400009 	beqz	v0,d0c <start_tty+0x78>
     ce8:	24840988 	addiu	a0,a0,2440
     cec:	92020129 	lbu	v0,297(s0)
     cf0:	00000000 	nop
     cf4:	304200fb 	andi	v0,v0,0xfb
     cf8:	34420008 	ori	v0,v0,0x8
     cfc:	a2020129 	sb	v0,297(s0)
     d00:	24050001 	li	a1,1
     d04:	0c000000 	jal	0 <alloc_tty_struct>
			d04: R_MIPS_26	__wake_up
     d08:	24060001 	li	a2,1
     d0c:	8e020098 	lw	v0,152(s0)
     d10:	00000000 	nop
     d14:	10400003 	beqz	v0,d24 <start_tty+0x90>
     d18:	00000000 	nop
     d1c:	0040f809 	jalr	v0
     d20:	02002021 	move	a0,s0
     d24:	8e020118 	lw	v0,280(s0)
     d28:	00000000 	nop
     d2c:	00021142 	srl	v0,v0,0x5
     d30:	30420001 	andi	v0,v0,0x1
     d34:	10400008 	beqz	v0,d58 <start_tty+0xc4>
     d38:	26040980 	addiu	a0,s0,2432
     d3c:	8e020100 	lw	v0,256(s0)
     d40:	00000000 	nop
     d44:	10400005 	beqz	v0,d5c <start_tty+0xc8>
     d48:	24050001 	li	a1,1
     d4c:	0040f809 	jalr	v0
     d50:	02002021 	move	a0,s0
     d54:	26040980 	addiu	a0,s0,2432
     d58:	24050001 	li	a1,1
     d5c:	0c000000 	jal	0 <alloc_tty_struct>
			d5c: R_MIPS_26	__wake_up
     d60:	24060001 	li	a2,1
     d64:	8fbf0014 	lw	ra,20(sp)
     d68:	8fb00010 	lw	s0,16(sp)
     d6c:	03e00008 	jr	ra
     d70:	27bd0018 	addiu	sp,sp,24

00000d74 <tty_read>:
     d74:	27bdffd0 	addiu	sp,sp,-48
     d78:	afbf0028 	sw	ra,40(sp)
     d7c:	afb50024 	sw	s5,36(sp)
     d80:	afb40020 	sw	s4,32(sp)
     d84:	afb3001c 	sw	s3,28(sp)
     d88:	afb20018 	sw	s2,24(sp)
     d8c:	afb10014 	sw	s1,20(sp)
     d90:	afb00010 	sw	s0,16(sp)
     d94:	00808021 	move	s0,a0
     d98:	00a09021 	move	s2,a1
     d9c:	00c09821 	move	s3,a2
     da0:	24820020 	addiu	v0,a0,32
     da4:	14e20038 	bne	a3,v0,e88 <tty_read+0x114>
     da8:	2403ffe3 	li	v1,-29
     dac:	8c91005c 	lw	s1,92(a0)
     db0:	8c820008 	lw	v0,8(a0)
     db4:	00000000 	nop
     db8:	8c550008 	lw	s5,8(v0)
     dbc:	00000000 	nop
     dc0:	96a40040 	lhu	a0,64(s5)
     dc4:	3c140000 	lui	s4,0x0
			dc4: R_MIPS_HI16	.rodata
     dc8:	26940144 	addiu	s4,s4,324
			dc8: R_MIPS_LO16	.rodata
     dcc:	16200007 	bnez	s1,dec <tty_read+0x78>
     dd0:	00000000 	nop
     dd4:	0c000000 	jal	0 <alloc_tty_struct>
			dd4: R_MIPS_26	kdevname
     dd8:	00000000 	nop
     ddc:	3c040000 	lui	a0,0x0
			ddc: R_MIPS_HI16	.rodata
     de0:	2484011c 	addiu	a0,a0,284
			de0: R_MIPS_LO16	.rodata
     de4:	08000384 	j	e10 <tty_read+0x9c>
			de4: R_MIPS_26	.text
     de8:	00402821 	move	a1,v0
     dec:	8e230000 	lw	v1,0(s1)
     df0:	24025401 	li	v0,21505
     df4:	1062000a 	beq	v1,v0,e20 <tty_read+0xac>
     df8:	00000000 	nop
     dfc:	0c000000 	jal	0 <alloc_tty_struct>
			dfc: R_MIPS_26	kdevname
     e00:	00000000 	nop
     e04:	3c040000 	lui	a0,0x0
			e04: R_MIPS_HI16	.rodata
     e08:	248400e4 	addiu	a0,a0,228
			e08: R_MIPS_LO16	.rodata
     e0c:	00402821 	move	a1,v0
     e10:	0c000000 	jal	0 <alloc_tty_struct>
			e10: R_MIPS_26	printk
     e14:	02803021 	move	a2,s4
     e18:	08000389 	j	e24 <tty_read+0xb0>
			e18: R_MIPS_26	.text
     e1c:	24020001 	li	v0,1
     e20:	00001021 	move	v0,zero
     e24:	14400018 	bnez	v0,e88 <tty_read+0x114>
     e28:	2403fffb 	li	v1,-5
     e2c:	12200017 	beqz	s1,e8c <tty_read+0x118>
     e30:	00601021 	move	v0,v1
     e34:	8e220118 	lw	v0,280(s1)
     e38:	00000000 	nop
     e3c:	00021042 	srl	v0,v0,0x1
     e40:	30420001 	andi	v0,v0,0x1
     e44:	14400011 	bnez	v0,e8c <tty_read+0x118>
     e48:	00601021 	move	v0,v1
     e4c:	8e2200e4 	lw	v0,228(s1)
     e50:	00000000 	nop
     e54:	10400006 	beqz	v0,e70 <tty_read+0xfc>
     e58:	02202021 	move	a0,s1
     e5c:	02002821 	move	a1,s0
     e60:	02403021 	move	a2,s2
     e64:	0040f809 	jalr	v0
     e68:	02603821 	move	a3,s3
     e6c:	00401821 	move	v1,v0
     e70:	18600006 	blez	v1,e8c <tty_read+0x118>
     e74:	00601021 	move	v0,v1
     e78:	3c020000 	lui	v0,0x0
			e78: R_MIPS_HI16	xtime
     e7c:	8c420000 	lw	v0,0(v0)
			e7c: R_MIPS_LO16	xtime
     e80:	00000000 	nop
     e84:	aea20050 	sw	v0,80(s5)
     e88:	00601021 	move	v0,v1
     e8c:	8fbf0028 	lw	ra,40(sp)
     e90:	8fb50024 	lw	s5,36(sp)
     e94:	8fb40020 	lw	s4,32(sp)
     e98:	8fb3001c 	lw	s3,28(sp)
     e9c:	8fb20018 	lw	s2,24(sp)
     ea0:	8fb10014 	lw	s1,20(sp)
     ea4:	8fb00010 	lw	s0,16(sp)
     ea8:	03e00008 	jr	ra
     eac:	27bd0030 	addiu	sp,sp,48

00000eb0 <tty_write>:
     eb0:	27bdffd0 	addiu	sp,sp,-48
     eb4:	afbf002c 	sw	ra,44(sp)
     eb8:	afb40028 	sw	s4,40(sp)
     ebc:	afb30024 	sw	s3,36(sp)
     ec0:	afb20020 	sw	s2,32(sp)
     ec4:	afb1001c 	sw	s1,28(sp)
     ec8:	afb00018 	sw	s0,24(sp)
     ecc:	00808821 	move	s1,a0
     ed0:	00a0a021 	move	s4,a1
     ed4:	00c09821 	move	s3,a2
     ed8:	24820020 	addiu	v0,a0,32
     edc:	14e20047 	bne	a3,v0,ffc <tty_write+0x14c>
     ee0:	2403ffe3 	li	v1,-29
     ee4:	8c820008 	lw	v0,8(a0)
     ee8:	00000000 	nop
     eec:	8c440008 	lw	a0,8(v0)
     ef0:	00000000 	nop
     ef4:	94830040 	lhu	v1,64(a0)
     ef8:	24020501 	li	v0,1281
     efc:	10620004 	beq	v1,v0,f10 <tty_write+0x60>
     f00:	00002821 	move	a1,zero
     f04:	24020400 	li	v0,1024
     f08:	14620002 	bne	v1,v0,f14 <tty_write+0x64>
     f0c:	00000000 	nop
     f10:	24050001 	li	a1,1
     f14:	10a00006 	beqz	a1,f30 <tty_write+0x80>
     f18:	00000000 	nop
     f1c:	3c020000 	lui	v0,0x0
			f1c: R_MIPS_HI16	redirect
     f20:	8c420000 	lw	v0,0(v0)
			f20: R_MIPS_LO16	redirect
     f24:	00000000 	nop
     f28:	14400002 	bnez	v0,f34 <tty_write+0x84>
     f2c:	00408021 	move	s0,v0
     f30:	8e30005c 	lw	s0,92(s1)
     f34:	94840040 	lhu	a0,64(a0)
     f38:	3c120000 	lui	s2,0x0
			f38: R_MIPS_HI16	.rodata
     f3c:	26520150 	addiu	s2,s2,336
			f3c: R_MIPS_LO16	.rodata
     f40:	16000007 	bnez	s0,f60 <tty_write+0xb0>
     f44:	00000000 	nop
     f48:	0c000000 	jal	0 <alloc_tty_struct>
			f48: R_MIPS_26	kdevname
     f4c:	00000000 	nop
     f50:	3c040000 	lui	a0,0x0
			f50: R_MIPS_HI16	.rodata
     f54:	2484011c 	addiu	a0,a0,284
			f54: R_MIPS_LO16	.rodata
     f58:	080003e1 	j	f84 <tty_write+0xd4>
			f58: R_MIPS_26	.text
     f5c:	00402821 	move	a1,v0
     f60:	8e030000 	lw	v1,0(s0)
     f64:	24025401 	li	v0,21505
     f68:	1062000a 	beq	v1,v0,f94 <tty_write+0xe4>
     f6c:	00000000 	nop
     f70:	0c000000 	jal	0 <alloc_tty_struct>
			f70: R_MIPS_26	kdevname
     f74:	00000000 	nop
     f78:	3c040000 	lui	a0,0x0
			f78: R_MIPS_HI16	.rodata
     f7c:	248400e4 	addiu	a0,a0,228
			f7c: R_MIPS_LO16	.rodata
     f80:	00402821 	move	a1,v0
     f84:	0c000000 	jal	0 <alloc_tty_struct>
			f84: R_MIPS_26	printk
     f88:	02403021 	move	a2,s2
     f8c:	080003e6 	j	f98 <tty_write+0xe8>
			f8c: R_MIPS_26	.text
     f90:	24020001 	li	v0,1
     f94:	00001021 	move	v0,zero
     f98:	14400018 	bnez	v0,ffc <tty_write+0x14c>
     f9c:	2403fffb 	li	v1,-5
     fa0:	12000017 	beqz	s0,1000 <tty_write+0x150>
     fa4:	00601021 	move	v0,v1
     fa8:	8e020070 	lw	v0,112(s0)
     fac:	00000000 	nop
     fb0:	10400013 	beqz	v0,1000 <tty_write+0x150>
     fb4:	00601021 	move	v0,v1
     fb8:	8e020118 	lw	v0,280(s0)
     fbc:	00000000 	nop
     fc0:	00021042 	srl	v0,v0,0x1
     fc4:	30420001 	andi	v0,v0,0x1
     fc8:	1440000d 	bnez	v0,1000 <tty_write+0x150>
     fcc:	00601021 	move	v0,v1
     fd0:	8e0200e8 	lw	v0,232(s0)
     fd4:	00000000 	nop
     fd8:	10400009 	beqz	v0,1000 <tty_write+0x150>
     fdc:	00601021 	move	v0,v1
     fe0:	afb30010 	sw	s3,16(sp)
     fe4:	8e0400e8 	lw	a0,232(s0)
     fe8:	02002821 	move	a1,s0
     fec:	02203021 	move	a2,s1
     ff0:	0c000f38 	jal	3ce0 <do_tty_write>
			ff0: R_MIPS_26	.text
     ff4:	02803821 	move	a3,s4
     ff8:	00401821 	move	v1,v0
     ffc:	00601021 	move	v0,v1
    1000:	8fbf002c 	lw	ra,44(sp)
    1004:	8fb40028 	lw	s4,40(sp)
    1008:	8fb30024 	lw	s3,36(sp)
    100c:	8fb20020 	lw	s2,32(sp)
    1010:	8fb1001c 	lw	s1,28(sp)
    1014:	8fb00018 	lw	s0,24(sp)
    1018:	03e00008 	jr	ra
    101c:	27bd0030 	addiu	sp,sp,48

00001020 <down_tty_sem>:
    1020:	27bdffe8 	addiu	sp,sp,-24
    1024:	afbf0010 	sw	ra,16(sp)
    1028:	3c040000 	lui	a0,0x0
			1028: R_MIPS_HI16	.data
    102c:	24840090 	addiu	a0,a0,144
			102c: R_MIPS_LO16	.data
    1030:	40036000 	mfc0	v1,$12
    1034:	40016000 	mfc0	at,$12
    1038:	00000000 	nop
    103c:	34210001 	ori	at,at,0x1
    1040:	38210001 	xori	at,at,0x1
    1044:	40816000 	mtc0	at,$12
    1048:	00000040 	sll	zero,zero,0x1
    104c:	00000040 	sll	zero,zero,0x1
    1050:	00000040 	sll	zero,zero,0x1
    1054:	8c820000 	lw	v0,0(a0)
    1058:	00000000 	nop
    105c:	2442ffff 	addiu	v0,v0,-1
    1060:	ac820000 	sw	v0,0(a0)
    1064:	40016000 	mfc0	at,$12
    1068:	30630001 	andi	v1,v1,0x1
    106c:	34210001 	ori	at,at,0x1
    1070:	38210001 	xori	at,at,0x1
    1074:	00611825 	or	v1,v1,at
    1078:	40836000 	mtc0	v1,$12
    107c:	00000040 	sll	zero,zero,0x1
    1080:	00000040 	sll	zero,zero,0x1
    1084:	00000040 	sll	zero,zero,0x1
    1088:	04410003 	bgez	v0,1098 <down_tty_sem+0x78>
    108c:	00000000 	nop
    1090:	0c000000 	jal	0 <alloc_tty_struct>
			1090: R_MIPS_26	__down
    1094:	00000000 	nop
    1098:	8fbf0010 	lw	ra,16(sp)
    109c:	00000000 	nop
    10a0:	03e00008 	jr	ra
    10a4:	27bd0018 	addiu	sp,sp,24

000010a8 <up_tty_sem>:
    10a8:	27bdffe8 	addiu	sp,sp,-24
    10ac:	afbf0010 	sw	ra,16(sp)
    10b0:	3c040000 	lui	a0,0x0
			10b0: R_MIPS_HI16	.data
    10b4:	24840090 	addiu	a0,a0,144
			10b4: R_MIPS_LO16	.data
    10b8:	40036000 	mfc0	v1,$12
    10bc:	40016000 	mfc0	at,$12
    10c0:	00000000 	nop
    10c4:	34210001 	ori	at,at,0x1
    10c8:	38210001 	xori	at,at,0x1
    10cc:	40816000 	mtc0	at,$12
    10d0:	00000040 	sll	zero,zero,0x1
    10d4:	00000040 	sll	zero,zero,0x1
    10d8:	00000040 	sll	zero,zero,0x1
    10dc:	8c820000 	lw	v0,0(a0)
    10e0:	00000000 	nop
    10e4:	24420001 	addiu	v0,v0,1
    10e8:	ac820000 	sw	v0,0(a0)
    10ec:	40016000 	mfc0	at,$12
    10f0:	30630001 	andi	v1,v1,0x1
    10f4:	34210001 	ori	at,at,0x1
    10f8:	38210001 	xori	at,at,0x1
    10fc:	00611825 	or	v1,v1,at
    1100:	40836000 	mtc0	v1,$12
    1104:	00000040 	sll	zero,zero,0x1
    1108:	00000040 	sll	zero,zero,0x1
    110c:	00000040 	sll	zero,zero,0x1
    1110:	1c400003 	bgtz	v0,1120 <up_tty_sem+0x78>
    1114:	00000000 	nop
    1118:	0c000000 	jal	0 <alloc_tty_struct>
			1118: R_MIPS_26	__up
    111c:	00000000 	nop
    1120:	8fbf0010 	lw	ra,16(sp)
    1124:	00000000 	nop
    1128:	03e00008 	jr	ra
    112c:	27bd0018 	addiu	sp,sp,24

00001130 <init_dev>:
    1130:	27bdffb0 	addiu	sp,sp,-80
    1134:	afbf004c 	sw	ra,76(sp)
    1138:	afbe0048 	sw	s8,72(sp)
    113c:	afb70044 	sw	s7,68(sp)
    1140:	afb60040 	sw	s6,64(sp)
    1144:	afb5003c 	sw	s5,60(sp)
    1148:	afb40038 	sw	s4,56(sp)
    114c:	afb30034 	sw	s3,52(sp)
    1150:	afb20030 	sw	s2,48(sp)
    1154:	afb1002c 	sw	s1,44(sp)
    1158:	afb00028 	sw	s0,40(sp)
    115c:	00a0a821 	move	s5,a1
    1160:	3090ffff 	andi	s0,a0,0xffff
    1164:	0000a021 	move	s4,zero
    1168:	0c000000 	jal	0 <alloc_tty_struct>
			1168: R_MIPS_26	get_tty_driver
    116c:	02002021 	move	a0,s0
    1170:	00408821 	move	s1,v0
    1174:	12200169 	beqz	s1,171c <init_dev+0x5ec>
    1178:	2402ffed 	li	v0,-19
    117c:	321300ff 	andi	s3,s0,0xff
    1180:	86220012 	lh	v0,18(s1)
    1184:	00000000 	nop
    1188:	02629823 	subu	s3,s3,v0
    118c:	0c000408 	jal	1020 <down_tty_sem>
			118c: R_MIPS_26	.text
    1190:	02602021 	move	a0,s3
    1194:	8e230054 	lw	v1,84(s1)
    1198:	00131080 	sll	v0,s3,0x2
    119c:	00431021 	addu	v0,v0,v1
    11a0:	8c520000 	lw	s2,0(v0)
    11a4:	00000000 	nop
    11a8:	16400109 	bnez	s2,15d0 <init_dev+0x4a0>
    11ac:	0000b821 	move	s7,zero
    11b0:	afa00014 	sw	zero,20(sp)
    11b4:	afa00010 	sw	zero,16(sp)
    11b8:	afa00020 	sw	zero,32(sp)
    11bc:	0c000000 	jal	0 <alloc_tty_struct>
			11bc: R_MIPS_26	.text
    11c0:	afa0001c 	sw	zero,28(sp)
    11c4:	1040014a 	beqz	v0,16f0 <init_dev+0x5c0>
    11c8:	00409021 	move	s2,v0
    11cc:	0c000e08 	jal	3820 <initialize_tty_struct>
			11cc: R_MIPS_26	.text
    11d0:	00402021 	move	a0,v0
    11d4:	a6500114 	sh	s0,276(s2)
    11d8:	26430004 	addiu	v1,s2,4
    11dc:	02201021 	move	v0,s1
    11e0:	262400c0 	addiu	a0,s1,192
    11e4:	8c450000 	lw	a1,0(v0)
    11e8:	8c460004 	lw	a2,4(v0)
    11ec:	8c470008 	lw	a3,8(v0)
    11f0:	8c48000c 	lw	t0,12(v0)
    11f4:	ac650000 	sw	a1,0(v1)
    11f8:	ac660004 	sw	a2,4(v1)
    11fc:	ac670008 	sw	a3,8(v1)
    1200:	ac68000c 	sw	t0,12(v1)
    1204:	24420010 	addiu	v0,v0,16
    1208:	1444fff6 	bne	v0,a0,11e4 <init_dev+0xb4>
    120c:	24630010 	addiu	v1,v1,16
    1210:	00131080 	sll	v0,s3,0x2
    1214:	8e230058 	lw	v1,88(s1)
    1218:	00000000 	nop
    121c:	0043b021 	addu	s6,v0,v1
    1220:	8ec20000 	lw	v0,0(s6)
    1224:	00000000 	nop
    1228:	14400019 	bnez	v0,1290 <init_dev+0x160>
    122c:	00131080 	sll	v0,s3,0x2
    1230:	24040028 	li	a0,40
    1234:	0c000000 	jal	0 <alloc_tty_struct>
			1234: R_MIPS_26	kmalloc
    1238:	240501f0 	li	a1,496
    123c:	10400114 	beqz	v0,1690 <init_dev+0x560>
    1240:	afa20010 	sw	v0,16(sp)
    1244:	00401821 	move	v1,v0
    1248:	2622001c 	addiu	v0,s1,28
    124c:	2624003c 	addiu	a0,s1,60
    1250:	8c450000 	lw	a1,0(v0)
    1254:	8c460004 	lw	a2,4(v0)
    1258:	8c470008 	lw	a3,8(v0)
    125c:	8c48000c 	lw	t0,12(v0)
    1260:	ac650000 	sw	a1,0(v1)
    1264:	ac660004 	sw	a2,4(v1)
    1268:	ac670008 	sw	a3,8(v1)
    126c:	ac68000c 	sw	t0,12(v1)
    1270:	24420010 	addiu	v0,v0,16
    1274:	1444fff6 	bne	v0,a0,1250 <init_dev+0x120>
    1278:	24630010 	addiu	v1,v1,16
    127c:	8c440000 	lw	a0,0(v0)
    1280:	8c450004 	lw	a1,4(v0)
    1284:	ac640000 	sw	a0,0(v1)
    1288:	ac650004 	sw	a1,4(v1)
    128c:	00131080 	sll	v0,s3,0x2
    1290:	8e23005c 	lw	v1,92(s1)
    1294:	00000000 	nop
    1298:	00438021 	addu	s0,v0,v1
    129c:	8e020000 	lw	v0,0(s0)
    12a0:	00000000 	nop
    12a4:	14400009 	bnez	v0,12cc <init_dev+0x19c>
    12a8:	24040028 	li	a0,40
    12ac:	0c000000 	jal	0 <alloc_tty_struct>
			12ac: R_MIPS_26	kmalloc
    12b0:	240501f0 	li	a1,496
    12b4:	104000f6 	beqz	v0,1690 <init_dev+0x560>
    12b8:	afa2001c 	sw	v0,28(sp)
    12bc:	00402021 	move	a0,v0
    12c0:	00002821 	move	a1,zero
    12c4:	0c000000 	jal	0 <alloc_tty_struct>
			12c4: R_MIPS_26	memset
    12c8:	24060028 	li	a2,40
    12cc:	86230016 	lh	v1,22(s1)
    12d0:	24020004 	li	v0,4
    12d4:	14620082 	bne	v1,v0,14e0 <init_dev+0x3b0>
    12d8:	00000000 	nop
    12dc:	0c000000 	jal	0 <alloc_tty_struct>
			12dc: R_MIPS_26	.text
    12e0:	00000000 	nop
    12e4:	104000ea 	beqz	v0,1690 <init_dev+0x560>
    12e8:	0040b821 	move	s7,v0
    12ec:	0c000e08 	jal	3820 <initialize_tty_struct>
			12ec: R_MIPS_26	.text
    12f0:	00402021 	move	a0,v0
    12f4:	8e220050 	lw	v0,80(s1)
    12f8:	00000000 	nop
    12fc:	84430010 	lh	v1,16(v0)
    1300:	00000000 	nop
    1304:	00031a00 	sll	v1,v1,0x8
    1308:	94420012 	lhu	v0,18(v0)
    130c:	00000000 	nop
    1310:	00531021 	addu	v0,v0,s3
    1314:	00621825 	or	v1,v1,v0
    1318:	a6e30114 	sh	v1,276(s7)
    131c:	26e30004 	addiu	v1,s7,4
    1320:	8e220050 	lw	v0,80(s1)
    1324:	00000000 	nop
    1328:	244400c0 	addiu	a0,v0,192
    132c:	8c480000 	lw	t0,0(v0)
    1330:	8c450004 	lw	a1,4(v0)
    1334:	8c460008 	lw	a2,8(v0)
    1338:	8c47000c 	lw	a3,12(v0)
    133c:	ac680000 	sw	t0,0(v1)
    1340:	ac650004 	sw	a1,4(v1)
    1344:	ac660008 	sw	a2,8(v1)
    1348:	ac67000c 	sw	a3,12(v1)
    134c:	24420010 	addiu	v0,v0,16
    1350:	1444fff6 	bne	v0,a0,132c <init_dev+0x1fc>
    1354:	24630010 	addiu	v1,v1,16
    1358:	8e220050 	lw	v0,80(s1)
    135c:	00131880 	sll	v1,s3,0x2
    1360:	8c420058 	lw	v0,88(v0)
    1364:	00000000 	nop
    1368:	00621821 	addu	v1,v1,v0
    136c:	afa30018 	sw	v1,24(sp)
    1370:	8c620000 	lw	v0,0(v1)
    1374:	00000000 	nop
    1378:	14400018 	bnez	v0,13dc <init_dev+0x2ac>
    137c:	24040028 	li	a0,40
    1380:	0c000000 	jal	0 <alloc_tty_struct>
			1380: R_MIPS_26	kmalloc
    1384:	240501f0 	li	a1,496
    1388:	104000c7 	beqz	v0,16a8 <init_dev+0x578>
    138c:	afa20014 	sw	v0,20(sp)
    1390:	8e220050 	lw	v0,80(s1)
    1394:	8fa40014 	lw	a0,20(sp)
    1398:	2443001c 	addiu	v1,v0,28
    139c:	2442003c 	addiu	v0,v0,60
    13a0:	8c680000 	lw	t0,0(v1)
    13a4:	8c650004 	lw	a1,4(v1)
    13a8:	8c660008 	lw	a2,8(v1)
    13ac:	8c67000c 	lw	a3,12(v1)
    13b0:	ac880000 	sw	t0,0(a0)
    13b4:	ac850004 	sw	a1,4(a0)
    13b8:	ac860008 	sw	a2,8(a0)
    13bc:	ac87000c 	sw	a3,12(a0)
    13c0:	24630010 	addiu	v1,v1,16
    13c4:	1462fff6 	bne	v1,v0,13a0 <init_dev+0x270>
    13c8:	24840010 	addiu	a0,a0,16
    13cc:	8c680000 	lw	t0,0(v1)
    13d0:	8c620004 	lw	v0,4(v1)
    13d4:	ac880000 	sw	t0,0(a0)
    13d8:	ac820004 	sw	v0,4(a0)
    13dc:	8e220050 	lw	v0,80(s1)
    13e0:	00131880 	sll	v1,s3,0x2
    13e4:	8c42005c 	lw	v0,92(v0)
    13e8:	00000000 	nop
    13ec:	0062f021 	addu	s8,v1,v0
    13f0:	8fc20000 	lw	v0,0(s8)
    13f4:	00000000 	nop
    13f8:	14400009 	bnez	v0,1420 <init_dev+0x2f0>
    13fc:	24040028 	li	a0,40
    1400:	0c000000 	jal	0 <alloc_tty_struct>
			1400: R_MIPS_26	kmalloc
    1404:	240501f0 	li	a1,496
    1408:	104000a1 	beqz	v0,1690 <init_dev+0x560>
    140c:	afa20020 	sw	v0,32(sp)
    1410:	00402021 	move	a0,v0
    1414:	00002821 	move	a1,zero
    1418:	0c000000 	jal	0 <alloc_tty_struct>
			1418: R_MIPS_26	memset
    141c:	24060028 	li	a2,40
    1420:	8e220050 	lw	v0,80(s1)
    1424:	00000000 	nop
    1428:	8c430054 	lw	v1,84(v0)
    142c:	00131080 	sll	v0,s3,0x2
    1430:	00431021 	addu	v0,v0,v1
    1434:	ac570000 	sw	s7,0(v0)
    1438:	8fa70018 	lw	a3,24(sp)
    143c:	00000000 	nop
    1440:	8ce20000 	lw	v0,0(a3)
    1444:	00000000 	nop
    1448:	14400004 	bnez	v0,145c <init_dev+0x32c>
    144c:	00000000 	nop
    1450:	8fa80014 	lw	t0,20(sp)
    1454:	00000000 	nop
    1458:	ace80000 	sw	t0,0(a3)
    145c:	8fc20000 	lw	v0,0(s8)
    1460:	00000000 	nop
    1464:	14400004 	bnez	v0,1478 <init_dev+0x348>
    1468:	00000000 	nop
    146c:	8fa20020 	lw	v0,32(sp)
    1470:	00000000 	nop
    1474:	afc20000 	sw	v0,0(s8)
    1478:	8fa30018 	lw	v1,24(sp)
    147c:	00000000 	nop
    1480:	8c620000 	lw	v0,0(v1)
    1484:	00000000 	nop
    1488:	aee20104 	sw	v0,260(s7)
    148c:	8fc20000 	lw	v0,0(s8)
    1490:	00000000 	nop
    1494:	aee20108 	sw	v0,264(s7)
    1498:	8e220050 	lw	v0,80(s1)
    149c:	00000000 	nop
    14a0:	8c430048 	lw	v1,72(v0)
    14a4:	00000000 	nop
    14a8:	8c620000 	lw	v0,0(v1)
    14ac:	00000000 	nop
    14b0:	24420001 	addiu	v0,v0,1
    14b4:	ac620000 	sw	v0,0(v1)
    14b8:	86230018 	lh	v1,24(s1)
    14bc:	24020001 	li	v0,1
    14c0:	14620005 	bne	v1,v0,14d8 <init_dev+0x3a8>
    14c4:	00000000 	nop
    14c8:	8ee2011c 	lw	v0,284(s7)
    14cc:	00000000 	nop
    14d0:	24420001 	addiu	v0,v0,1
    14d4:	aee2011c 	sw	v0,284(s7)
    14d8:	ae57012c 	sw	s7,300(s2)
    14dc:	aef2012c 	sw	s2,300(s7)
    14e0:	8e220054 	lw	v0,84(s1)
    14e4:	00131880 	sll	v1,s3,0x2
    14e8:	00621821 	addu	v1,v1,v0
    14ec:	ac720000 	sw	s2,0(v1)
    14f0:	8ec20000 	lw	v0,0(s6)
    14f4:	00000000 	nop
    14f8:	14400004 	bnez	v0,150c <init_dev+0x3dc>
    14fc:	00000000 	nop
    1500:	8fa40010 	lw	a0,16(sp)
    1504:	00000000 	nop
    1508:	aec40000 	sw	a0,0(s6)
    150c:	8e020000 	lw	v0,0(s0)
    1510:	00000000 	nop
    1514:	14400004 	bnez	v0,1528 <init_dev+0x3f8>
    1518:	00000000 	nop
    151c:	8fa5001c 	lw	a1,28(sp)
    1520:	00000000 	nop
    1524:	ae050000 	sw	a1,0(s0)
    1528:	8ec20000 	lw	v0,0(s6)
    152c:	00000000 	nop
    1530:	ae420104 	sw	v0,260(s2)
    1534:	8e020000 	lw	v0,0(s0)
    1538:	00000000 	nop
    153c:	ae420108 	sw	v0,264(s2)
    1540:	8e230048 	lw	v1,72(s1)
    1544:	00000000 	nop
    1548:	8c620000 	lw	v0,0(v1)
    154c:	00000000 	nop
    1550:	24420001 	addiu	v0,v0,1
    1554:	ac620000 	sw	v0,0(v1)
    1558:	8e42011c 	lw	v0,284(s2)
    155c:	00000000 	nop
    1560:	24420001 	addiu	v0,v0,1
    1564:	ae42011c 	sw	v0,284(s2)
    1568:	8e4200d4 	lw	v0,212(s2)
    156c:	00000000 	nop
    1570:	10400005 	beqz	v0,1588 <init_dev+0x458>
    1574:	00000000 	nop
    1578:	0040f809 	jalr	v0
    157c:	02402021 	move	a0,s2
    1580:	1440005d 	bnez	v0,16f8 <init_dev+0x5c8>
    1584:	0040a021 	move	s4,v0
    1588:	12e0003c 	beqz	s7,167c <init_dev+0x54c>
    158c:	00000000 	nop
    1590:	8ee200d4 	lw	v0,212(s7)
    1594:	00000000 	nop
    1598:	10400038 	beqz	v0,167c <init_dev+0x54c>
    159c:	00000000 	nop
    15a0:	0040f809 	jalr	v0
    15a4:	02e02021 	move	a0,s7
    15a8:	10400034 	beqz	v0,167c <init_dev+0x54c>
    15ac:	0040a021 	move	s4,v0
    15b0:	8e4200d8 	lw	v0,216(s2)
    15b4:	00000000 	nop
    15b8:	1040004f 	beqz	v0,16f8 <init_dev+0x5c8>
    15bc:	00000000 	nop
    15c0:	0040f809 	jalr	v0
    15c4:	02402021 	move	a0,s2
    15c8:	080005be 	j	16f8 <init_dev+0x5c8>
			15c8: R_MIPS_26	.text
    15cc:	00000000 	nop
    15d0:	9242011b 	lbu	v0,283(s2)
    15d4:	00000000 	nop
    15d8:	000211c2 	srl	v0,v0,0x7
    15dc:	1440000d 	bnez	v0,1614 <init_dev+0x4e4>
    15e0:	00000000 	nop
    15e4:	86230016 	lh	v1,22(s1)
    15e8:	24020004 	li	v0,4
    15ec:	14620011 	bne	v1,v0,1634 <init_dev+0x504>
    15f0:	24020001 	li	v0,1
    15f4:	86230018 	lh	v1,24(s1)
    15f8:	00000000 	nop
    15fc:	1462000d 	bne	v1,v0,1634 <init_dev+0x504>
    1600:	00000000 	nop
    1604:	8e42011c 	lw	v0,284(s2)
    1608:	00000000 	nop
    160c:	10400003 	beqz	v0,161c <init_dev+0x4ec>
    1610:	00000000 	nop
    1614:	080005a0 	j	1680 <init_dev+0x550>
			1614: R_MIPS_26	.text
    1618:	2414fffb 	li	s4,-5
    161c:	8e43012c 	lw	v1,300(s2)
    1620:	00000000 	nop
    1624:	8c62011c 	lw	v0,284(v1)
    1628:	00000000 	nop
    162c:	24420001 	addiu	v0,v0,1
    1630:	ac62011c 	sw	v0,284(v1)
    1634:	8e42011c 	lw	v0,284(s2)
    1638:	00000000 	nop
    163c:	24420001 	addiu	v0,v0,1
    1640:	ae42011c 	sw	v0,284(s2)
    1644:	26430004 	addiu	v1,s2,4
    1648:	02201021 	move	v0,s1
    164c:	262400c0 	addiu	a0,s1,192
    1650:	8c460000 	lw	a2,0(v0)
    1654:	8c470004 	lw	a3,4(v0)
    1658:	8c480008 	lw	t0,8(v0)
    165c:	8c45000c 	lw	a1,12(v0)
    1660:	ac660000 	sw	a2,0(v1)
    1664:	ac670004 	sw	a3,4(v1)
    1668:	ac680008 	sw	t0,8(v1)
    166c:	ac65000c 	sw	a1,12(v1)
    1670:	24420010 	addiu	v0,v0,16
    1674:	1444fff6 	bne	v0,a0,1650 <init_dev+0x520>
    1678:	24630010 	addiu	v1,v1,16
    167c:	aeb20000 	sw	s2,0(s5)
    1680:	0c00042a 	jal	10a8 <up_tty_sem>
			1680: R_MIPS_26	.text
    1684:	02602021 	move	a0,s3
    1688:	080005c7 	j	171c <init_dev+0x5ec>
			1688: R_MIPS_26	.text
    168c:	02801021 	move	v0,s4
    1690:	8fa60014 	lw	a2,20(sp)
    1694:	00000000 	nop
    1698:	10c00003 	beqz	a2,16a8 <init_dev+0x578>
    169c:	00000000 	nop
    16a0:	0c000000 	jal	0 <alloc_tty_struct>
			16a0: R_MIPS_26	kfree
    16a4:	00c02021 	move	a0,a2
    16a8:	12e00003 	beqz	s7,16b8 <init_dev+0x588>
    16ac:	00000000 	nop
    16b0:	0c000000 	jal	0 <alloc_tty_struct>
			16b0: R_MIPS_26	kfree
    16b4:	02e02021 	move	a0,s7
    16b8:	8fa7001c 	lw	a3,28(sp)
    16bc:	00000000 	nop
    16c0:	10e00003 	beqz	a3,16d0 <init_dev+0x5a0>
    16c4:	00000000 	nop
    16c8:	0c000000 	jal	0 <alloc_tty_struct>
			16c8: R_MIPS_26	kfree
    16cc:	00e02021 	move	a0,a3
    16d0:	8fa80010 	lw	t0,16(sp)
    16d4:	00000000 	nop
    16d8:	11000003 	beqz	t0,16e8 <init_dev+0x5b8>
    16dc:	00000000 	nop
    16e0:	0c000000 	jal	0 <alloc_tty_struct>
			16e0: R_MIPS_26	kfree
    16e4:	01002021 	move	a0,t0
    16e8:	0c000000 	jal	0 <alloc_tty_struct>
			16e8: R_MIPS_26	kfree
    16ec:	02402021 	move	a0,s2
    16f0:	080005a0 	j	1680 <init_dev+0x550>
			16f0: R_MIPS_26	.text
    16f4:	2414fff4 	li	s4,-12
    16f8:	3c040000 	lui	a0,0x0
			16f8: R_MIPS_HI16	.rodata
    16fc:	2484015c 	addiu	a0,a0,348
			16fc: R_MIPS_LO16	.rodata
    1700:	0c000000 	jal	0 <alloc_tty_struct>
			1700: R_MIPS_26	printk
    1704:	02602821 	move	a1,s3
    1708:	02402021 	move	a0,s2
    170c:	0c0005d3 	jal	174c <release_mem>
			170c: R_MIPS_26	.text
    1710:	02602821 	move	a1,s3
    1714:	080005a0 	j	1680 <init_dev+0x550>
			1714: R_MIPS_26	.text
    1718:	00000000 	nop
    171c:	8fbf004c 	lw	ra,76(sp)
    1720:	8fbe0048 	lw	s8,72(sp)
    1724:	8fb70044 	lw	s7,68(sp)
    1728:	8fb60040 	lw	s6,64(sp)
    172c:	8fb5003c 	lw	s5,60(sp)
    1730:	8fb40038 	lw	s4,56(sp)
    1734:	8fb30034 	lw	s3,52(sp)
    1738:	8fb20030 	lw	s2,48(sp)
    173c:	8fb1002c 	lw	s1,44(sp)
    1740:	8fb00028 	lw	s0,40(sp)
    1744:	03e00008 	jr	ra
    1748:	27bd0050 	addiu	sp,sp,80

0000174c <release_mem>:
    174c:	27bdffe0 	addiu	sp,sp,-32
    1750:	afbf001c 	sw	ra,28(sp)
    1754:	afb20018 	sw	s2,24(sp)
    1758:	afb10014 	sw	s1,20(sp)
    175c:	afb00010 	sw	s0,16(sp)
    1760:	00808821 	move	s1,a0
    1764:	8c90012c 	lw	s0,300(a0)
    1768:	00000000 	nop
    176c:	1200001e 	beqz	s0,17e8 <release_mem+0x9c>
    1770:	00a09021 	move	s2,a1
    1774:	8e020058 	lw	v0,88(s0)
    1778:	00051880 	sll	v1,a1,0x2
    177c:	00621021 	addu	v0,v1,v0
    1780:	ac400000 	sw	zero,0(v0)
    1784:	8e020048 	lw	v0,72(s0)
    1788:	00000000 	nop
    178c:	30420002 	andi	v0,v0,0x2
    1790:	10400007 	beqz	v0,17b0 <release_mem+0x64>
    1794:	00000000 	nop
    1798:	8e02005c 	lw	v0,92(s0)
    179c:	00000000 	nop
    17a0:	00621021 	addu	v0,v1,v0
    17a4:	8c440000 	lw	a0,0(v0)
    17a8:	0c000000 	jal	0 <alloc_tty_struct>
			17a8: R_MIPS_26	kfree
    17ac:	ac400000 	sw	zero,0(v0)
    17b0:	ae000000 	sw	zero,0(s0)
    17b4:	8e03004c 	lw	v1,76(s0)
    17b8:	00000000 	nop
    17bc:	8c620000 	lw	v0,0(v1)
    17c0:	00000000 	nop
    17c4:	2442ffff 	addiu	v0,v0,-1
    17c8:	ac620000 	sw	v0,0(v1)
    17cc:	8e0309b0 	lw	v1,2480(s0)
    17d0:	8e0209ac 	lw	v0,2476(s0)
    17d4:	00000000 	nop
    17d8:	ac430004 	sw	v1,4(v0)
    17dc:	ac620000 	sw	v0,0(v1)
    17e0:	0c000000 	jal	0 <alloc_tty_struct>
			17e0: R_MIPS_26	kfree
    17e4:	02002021 	move	a0,s0
    17e8:	8e220058 	lw	v0,88(s1)
    17ec:	00122880 	sll	a1,s2,0x2
    17f0:	00a21021 	addu	v0,a1,v0
    17f4:	ac400000 	sw	zero,0(v0)
    17f8:	8e220048 	lw	v0,72(s1)
    17fc:	00000000 	nop
    1800:	30420002 	andi	v0,v0,0x2
    1804:	10400007 	beqz	v0,1824 <release_mem+0xd8>
    1808:	00000000 	nop
    180c:	8e22005c 	lw	v0,92(s1)
    1810:	00000000 	nop
    1814:	00a21021 	addu	v0,a1,v0
    1818:	8c440000 	lw	a0,0(v0)
    181c:	0c000000 	jal	0 <alloc_tty_struct>
			181c: R_MIPS_26	kfree
    1820:	ac400000 	sw	zero,0(v0)
    1824:	ae200000 	sw	zero,0(s1)
    1828:	8e23004c 	lw	v1,76(s1)
    182c:	00000000 	nop
    1830:	8c620000 	lw	v0,0(v1)
    1834:	00000000 	nop
    1838:	2442ffff 	addiu	v0,v0,-1
    183c:	ac620000 	sw	v0,0(v1)
    1840:	8e2309b0 	lw	v1,2480(s1)
    1844:	8e2209ac 	lw	v0,2476(s1)
    1848:	00000000 	nop
    184c:	ac430004 	sw	v1,4(v0)
    1850:	ac620000 	sw	v0,0(v1)
    1854:	0c000000 	jal	0 <alloc_tty_struct>
			1854: R_MIPS_26	kfree
    1858:	02202021 	move	a0,s1
    185c:	8fbf001c 	lw	ra,28(sp)
    1860:	8fb20018 	lw	s2,24(sp)
    1864:	8fb10014 	lw	s1,20(sp)
    1868:	8fb00010 	lw	s0,16(sp)
    186c:	03e00008 	jr	ra
    1870:	27bd0020 	addiu	sp,sp,32

00001874 <release_dev>:
    1874:	27bdff88 	addiu	sp,sp,-120
    1878:	afbf0074 	sw	ra,116(sp)
    187c:	afbe0070 	sw	s8,112(sp)
    1880:	afb7006c 	sw	s7,108(sp)
    1884:	afb60068 	sw	s6,104(sp)
    1888:	afb50064 	sw	s5,100(sp)
    188c:	afb40060 	sw	s4,96(sp)
    1890:	afb3005c 	sw	s3,92(sp)
    1894:	afb20058 	sw	s2,88(sp)
    1898:	afb10054 	sw	s1,84(sp)
    189c:	afb00050 	sw	s0,80(sp)
    18a0:	00809021 	move	s2,a0
    18a4:	8c90005c 	lw	s0,92(a0)
    18a8:	8c820008 	lw	v0,8(a0)
    18ac:	00000000 	nop
    18b0:	8c420008 	lw	v0,8(v0)
    18b4:	00000000 	nop
    18b8:	94440040 	lhu	a0,64(v0)
    18bc:	3c110000 	lui	s1,0x0
			18bc: R_MIPS_HI16	.rodata
    18c0:	26310190 	addiu	s1,s1,400
			18c0: R_MIPS_LO16	.rodata
    18c4:	16000007 	bnez	s0,18e4 <release_dev+0x70>
    18c8:	00000000 	nop
    18cc:	0c000000 	jal	0 <alloc_tty_struct>
			18cc: R_MIPS_26	kdevname
    18d0:	00000000 	nop
    18d4:	3c040000 	lui	a0,0x0
			18d4: R_MIPS_HI16	.rodata
    18d8:	2484011c 	addiu	a0,a0,284
			18d8: R_MIPS_LO16	.rodata
    18dc:	08000642 	j	1908 <release_dev+0x94>
			18dc: R_MIPS_26	.text
    18e0:	00402821 	move	a1,v0
    18e4:	8e030000 	lw	v1,0(s0)
    18e8:	24025401 	li	v0,21505
    18ec:	1062000a 	beq	v1,v0,1918 <release_dev+0xa4>
    18f0:	00000000 	nop
    18f4:	0c000000 	jal	0 <alloc_tty_struct>
			18f4: R_MIPS_26	kdevname
    18f8:	00000000 	nop
    18fc:	3c040000 	lui	a0,0x0
			18fc: R_MIPS_HI16	.rodata
    1900:	248400e4 	addiu	a0,a0,228
			1900: R_MIPS_LO16	.rodata
    1904:	00402821 	move	a1,v0
    1908:	0c000000 	jal	0 <alloc_tty_struct>
			1908: R_MIPS_26	printk
    190c:	02203021 	move	a2,s1
    1910:	08000647 	j	191c <release_dev+0xa8>
			1910: R_MIPS_26	.text
    1914:	24020001 	li	v0,1
    1918:	00001021 	move	v0,zero
    191c:	14400190 	bnez	v0,1f60 <release_dev+0x6ec>
    1920:	00000000 	nop
    1924:	3c050000 	lui	a1,0x0
			1924: R_MIPS_HI16	.rodata
    1928:	24a50190 	addiu	a1,a1,400
			1928: R_MIPS_LO16	.rodata
    192c:	0c00003d 	jal	f4 <check_tty_count>
			192c: R_MIPS_26	.text
    1930:	02002021 	move	a0,s0
    1934:	2404ffff 	li	a0,-1
    1938:	02402821 	move	a1,s2
    193c:	0c000960 	jal	2580 <tty_fasync>
			193c: R_MIPS_26	.text
    1940:	00003021 	move	a2,zero
    1944:	92110115 	lbu	s1,277(s0)
    1948:	86020016 	lh	v0,22(s0)
    194c:	00000000 	nop
    1950:	02228823 	subu	s1,s1,v0
    1954:	8603001a 	lh	v1,26(s0)
    1958:	24020004 	li	v0,4
    195c:	14620006 	bne	v1,v0,1978 <release_dev+0x104>
    1960:	0000a821 	move	s5,zero
    1964:	8603001c 	lh	v1,28(s0)
    1968:	24020001 	li	v0,1
    196c:	14620002 	bne	v1,v0,1978 <release_dev+0x104>
    1970:	00000000 	nop
    1974:	24150001 	li	s5,1
    1978:	8e13012c 	lw	s3,300(s0)
    197c:	06200006 	bltz	s1,1998 <release_dev+0x124>
    1980:	00000000 	nop
    1984:	86020018 	lh	v0,24(s0)
    1988:	00000000 	nop
    198c:	0222102a 	slt	v0,s1,v0
    1990:	1440000a 	bnez	v0,19bc <release_dev+0x148>
    1994:	00111880 	sll	v1,s1,0x2
    1998:	96040114 	lhu	a0,276(s0)
    199c:	0c000000 	jal	0 <alloc_tty_struct>
			199c: R_MIPS_26	kdevname
    19a0:	00000000 	nop
    19a4:	3c040000 	lui	a0,0x0
			19a4: R_MIPS_HI16	.rodata
    19a8:	2484019c 	addiu	a0,a0,412
			19a8: R_MIPS_LO16	.rodata
    19ac:	0c000000 	jal	0 <alloc_tty_struct>
			19ac: R_MIPS_26	printk
    19b0:	00402821 	move	a1,v0
    19b4:	080007d8 	j	1f60 <release_dev+0x6ec>
			19b4: R_MIPS_26	.text
    19b8:	00000000 	nop
    19bc:	8e020058 	lw	v0,88(s0)
    19c0:	00000000 	nop
    19c4:	00621821 	addu	v1,v1,v0
    19c8:	8c620000 	lw	v0,0(v1)
    19cc:	00000000 	nop
    19d0:	12020008 	beq	s0,v0,19f4 <release_dev+0x180>
    19d4:	00000000 	nop
    19d8:	96040114 	lhu	a0,276(s0)
    19dc:	0c000000 	jal	0 <alloc_tty_struct>
			19dc: R_MIPS_26	kdevname
    19e0:	00000000 	nop
    19e4:	3c040000 	lui	a0,0x0
			19e4: R_MIPS_HI16	.rodata
    19e8:	248401d0 	addiu	a0,a0,464
			19e8: R_MIPS_LO16	.rodata
    19ec:	080006ce 	j	1b38 <release_dev+0x2c4>
			19ec: R_MIPS_26	.text
    19f0:	02202821 	move	a1,s1
    19f4:	8e03005c 	lw	v1,92(s0)
    19f8:	00111080 	sll	v0,s1,0x2
    19fc:	00431021 	addu	v0,v0,v1
    1a00:	8e030104 	lw	v1,260(s0)
    1a04:	8c420000 	lw	v0,0(v0)
    1a08:	00000000 	nop
    1a0c:	10620008 	beq	v1,v0,1a30 <release_dev+0x1bc>
    1a10:	00000000 	nop
    1a14:	96040114 	lhu	a0,276(s0)
    1a18:	0c000000 	jal	0 <alloc_tty_struct>
			1a18: R_MIPS_26	kdevname
    1a1c:	00000000 	nop
    1a20:	3c040000 	lui	a0,0x0
			1a20: R_MIPS_HI16	.rodata
    1a24:	24840204 	addiu	a0,a0,516
			1a24: R_MIPS_LO16	.rodata
    1a28:	080006ce 	j	1b38 <release_dev+0x2c4>
			1a28: R_MIPS_26	.text
    1a2c:	02202821 	move	a1,s1
    1a30:	8e030060 	lw	v1,96(s0)
    1a34:	00111080 	sll	v0,s1,0x2
    1a38:	00431021 	addu	v0,v0,v1
    1a3c:	8e030108 	lw	v1,264(s0)
    1a40:	8c420000 	lw	v0,0(v0)
    1a44:	00000000 	nop
    1a48:	10620008 	beq	v1,v0,1a6c <release_dev+0x1f8>
    1a4c:	00000000 	nop
    1a50:	96040114 	lhu	a0,276(s0)
    1a54:	0c000000 	jal	0 <alloc_tty_struct>
			1a54: R_MIPS_26	kdevname
    1a58:	00000000 	nop
    1a5c:	3c040000 	lui	a0,0x0
			1a5c: R_MIPS_HI16	.rodata
    1a60:	24840240 	addiu	a0,a0,576
			1a60: R_MIPS_LO16	.rodata
    1a64:	080006ce 	j	1b38 <release_dev+0x2c4>
			1a64: R_MIPS_26	.text
    1a68:	02202821 	move	a1,s1
    1a6c:	8e020054 	lw	v0,84(s0)
    1a70:	00000000 	nop
    1a74:	1040003d 	beqz	v0,1b6c <release_dev+0x2f8>
    1a78:	00111880 	sll	v1,s1,0x2
    1a7c:	8c420054 	lw	v0,84(v0)
    1a80:	00000000 	nop
    1a84:	00621821 	addu	v1,v1,v0
    1a88:	8c620000 	lw	v0,0(v1)
    1a8c:	00000000 	nop
    1a90:	12620008 	beq	s3,v0,1ab4 <release_dev+0x240>
    1a94:	00000000 	nop
    1a98:	96040114 	lhu	a0,276(s0)
    1a9c:	0c000000 	jal	0 <alloc_tty_struct>
			1a9c: R_MIPS_26	kdevname
    1aa0:	00000000 	nop
    1aa4:	3c040000 	lui	a0,0x0
			1aa4: R_MIPS_HI16	.rodata
    1aa8:	24840288 	addiu	a0,a0,648
			1aa8: R_MIPS_LO16	.rodata
    1aac:	080006ce 	j	1b38 <release_dev+0x2c4>
			1aac: R_MIPS_26	.text
    1ab0:	02202821 	move	a1,s1
    1ab4:	8e020054 	lw	v0,84(s0)
    1ab8:	00000000 	nop
    1abc:	8c430058 	lw	v1,88(v0)
    1ac0:	00111080 	sll	v0,s1,0x2
    1ac4:	00431021 	addu	v0,v0,v1
    1ac8:	8e630104 	lw	v1,260(s3)
    1acc:	8c420000 	lw	v0,0(v0)
    1ad0:	00000000 	nop
    1ad4:	10620008 	beq	v1,v0,1af8 <release_dev+0x284>
    1ad8:	00000000 	nop
    1adc:	96040114 	lhu	a0,276(s0)
    1ae0:	0c000000 	jal	0 <alloc_tty_struct>
			1ae0: R_MIPS_26	kdevname
    1ae4:	00000000 	nop
    1ae8:	3c040000 	lui	a0,0x0
			1ae8: R_MIPS_HI16	.rodata
    1aec:	248402c0 	addiu	a0,a0,704
			1aec: R_MIPS_LO16	.rodata
    1af0:	080006ce 	j	1b38 <release_dev+0x2c4>
			1af0: R_MIPS_26	.text
    1af4:	02202821 	move	a1,s1
    1af8:	8e020054 	lw	v0,84(s0)
    1afc:	00000000 	nop
    1b00:	8c43005c 	lw	v1,92(v0)
    1b04:	00111080 	sll	v0,s1,0x2
    1b08:	00431021 	addu	v0,v0,v1
    1b0c:	8e630108 	lw	v1,264(s3)
    1b10:	8c420000 	lw	v0,0(v0)
    1b14:	00000000 	nop
    1b18:	1062000b 	beq	v1,v0,1b48 <release_dev+0x2d4>
    1b1c:	00000000 	nop
    1b20:	96040114 	lhu	a0,276(s0)
    1b24:	0c000000 	jal	0 <alloc_tty_struct>
			1b24: R_MIPS_26	kdevname
    1b28:	00000000 	nop
    1b2c:	3c040000 	lui	a0,0x0
			1b2c: R_MIPS_HI16	.rodata
    1b30:	248402fc 	addiu	a0,a0,764
			1b30: R_MIPS_LO16	.rodata
    1b34:	02202821 	move	a1,s1
    1b38:	0c000000 	jal	0 <alloc_tty_struct>
			1b38: R_MIPS_26	printk
    1b3c:	00403021 	move	a2,v0
    1b40:	080007d8 	j	1f60 <release_dev+0x6ec>
			1b40: R_MIPS_26	.text
    1b44:	00000000 	nop
    1b48:	8e62012c 	lw	v0,300(s3)
    1b4c:	00000000 	nop
    1b50:	10500006 	beq	v0,s0,1b6c <release_dev+0x2f8>
    1b54:	00000000 	nop
    1b58:	3c040000 	lui	a0,0x0
			1b58: R_MIPS_HI16	.rodata
    1b5c:	0c000000 	jal	0 <alloc_tty_struct>
			1b5c: R_MIPS_26	printk
    1b60:	24840348 	addiu	a0,a0,840
			1b60: R_MIPS_LO16	.rodata
    1b64:	080007d8 	j	1f60 <release_dev+0x6ec>
			1b64: R_MIPS_26	.text
    1b68:	00000000 	nop
    1b6c:	8e02006c 	lw	v0,108(s0)
    1b70:	00000000 	nop
    1b74:	10400005 	beqz	v0,1b8c <release_dev+0x318>
    1b78:	0015f02b 	sltu	s8,zero,s5
    1b7c:	02002021 	move	a0,s0
    1b80:	0040f809 	jalr	v0
    1b84:	02402821 	move	a1,s2
    1b88:	0015f02b 	sltu	s8,zero,s5
    1b8c:	8e02011c 	lw	v0,284(s0)
    1b90:	00000000 	nop
    1b94:	28560002 	slti	s6,v0,2
    1b98:	12600007 	beqz	s3,1bb8 <release_dev+0x344>
    1b9c:	0000b821 	move	s7,zero
    1ba0:	8e62011c 	lw	v0,284(s3)
    1ba4:	00000000 	nop
    1ba8:	03c2102a 	slt	v0,s8,v0
    1bac:	14400002 	bnez	v0,1bb8 <release_dev+0x344>
    1bb0:	00000000 	nop
    1bb4:	24170001 	li	s7,1
    1bb8:	12c00017 	beqz	s6,1c18 <release_dev+0x3a4>
    1bbc:	0000a021 	move	s4,zero
    1bc0:	26040988 	addiu	a0,s0,2440
    1bc4:	8e020988 	lw	v0,2440(s0)
    1bc8:	00000000 	nop
    1bcc:	00441026 	xor	v0,v0,a0
    1bd0:	2c420001 	sltiu	v0,v0,1
    1bd4:	2c420001 	sltiu	v0,v0,1
    1bd8:	10400004 	beqz	v0,1bec <release_dev+0x378>
    1bdc:	24050003 	li	a1,3
    1be0:	0c000000 	jal	0 <alloc_tty_struct>
			1be0: R_MIPS_26	__wake_up
    1be4:	24060001 	li	a2,1
    1be8:	24140001 	li	s4,1
    1bec:	26040980 	addiu	a0,s0,2432
    1bf0:	8e020980 	lw	v0,2432(s0)
    1bf4:	00000000 	nop
    1bf8:	00441026 	xor	v0,v0,a0
    1bfc:	2c420001 	sltiu	v0,v0,1
    1c00:	2c420001 	sltiu	v0,v0,1
    1c04:	10400004 	beqz	v0,1c18 <release_dev+0x3a4>
    1c08:	24050003 	li	a1,3
    1c0c:	0c000000 	jal	0 <alloc_tty_struct>
			1c0c: R_MIPS_26	__wake_up
    1c10:	24060001 	li	a2,1
    1c14:	26940001 	addiu	s4,s4,1
    1c18:	12e00016 	beqz	s7,1c74 <release_dev+0x400>
    1c1c:	26640988 	addiu	a0,s3,2440
    1c20:	8e620988 	lw	v0,2440(s3)
    1c24:	00000000 	nop
    1c28:	00441026 	xor	v0,v0,a0
    1c2c:	2c420001 	sltiu	v0,v0,1
    1c30:	2c420001 	sltiu	v0,v0,1
    1c34:	10400004 	beqz	v0,1c48 <release_dev+0x3d4>
    1c38:	24050003 	li	a1,3
    1c3c:	0c000000 	jal	0 <alloc_tty_struct>
			1c3c: R_MIPS_26	__wake_up
    1c40:	24060001 	li	a2,1
    1c44:	26940001 	addiu	s4,s4,1
    1c48:	26640980 	addiu	a0,s3,2432
    1c4c:	8e620980 	lw	v0,2432(s3)
    1c50:	00000000 	nop
    1c54:	00441026 	xor	v0,v0,a0
    1c58:	2c420001 	sltiu	v0,v0,1
    1c5c:	2c420001 	sltiu	v0,v0,1
    1c60:	10400004 	beqz	v0,1c74 <release_dev+0x400>
    1c64:	24050003 	li	a1,3
    1c68:	0c000000 	jal	0 <alloc_tty_struct>
			1c68: R_MIPS_26	__wake_up
    1c6c:	24060001 	li	a2,1
    1c70:	26940001 	addiu	s4,s4,1
    1c74:	1280000b 	beqz	s4,1ca4 <release_dev+0x430>
    1c78:	02002021 	move	a0,s0
    1c7c:	0c000000 	jal	0 <alloc_tty_struct>
			1c7c: R_MIPS_26	tty_name
    1c80:	27a50010 	addiu	a1,sp,16
    1c84:	3c040000 	lui	a0,0x0
			1c84: R_MIPS_HI16	.rodata
    1c88:	2484036c 	addiu	a0,a0,876
			1c88: R_MIPS_LO16	.rodata
    1c8c:	0c000000 	jal	0 <alloc_tty_struct>
			1c8c: R_MIPS_26	printk
    1c90:	00402821 	move	a1,v0
    1c94:	0c000000 	jal	0 <alloc_tty_struct>
			1c94: R_MIPS_26	schedule
    1c98:	00000000 	nop
    1c9c:	080006e3 	j	1b8c <release_dev+0x318>
			1c9c: R_MIPS_26	.text
    1ca0:	00000000 	nop
    1ca4:	12a0000f 	beqz	s5,1ce4 <release_dev+0x470>
    1ca8:	00000000 	nop
    1cac:	8e62011c 	lw	v0,284(s3)
    1cb0:	00000000 	nop
    1cb4:	2442ffff 	addiu	v0,v0,-1
    1cb8:	0441000a 	bgez	v0,1ce4 <release_dev+0x470>
    1cbc:	ae62011c 	sw	v0,284(s3)
    1cc0:	02602021 	move	a0,s3
    1cc4:	0c000000 	jal	0 <alloc_tty_struct>
			1cc4: R_MIPS_26	tty_name
    1cc8:	27a50010 	addiu	a1,sp,16
    1ccc:	3c040000 	lui	a0,0x0
			1ccc: R_MIPS_HI16	.rodata
    1cd0:	248403a0 	addiu	a0,a0,928
			1cd0: R_MIPS_LO16	.rodata
    1cd4:	8e65011c 	lw	a1,284(s3)
    1cd8:	0c000000 	jal	0 <alloc_tty_struct>
			1cd8: R_MIPS_26	printk
    1cdc:	00403021 	move	a2,v0
    1ce0:	ae60011c 	sw	zero,284(s3)
    1ce4:	8e02011c 	lw	v0,284(s0)
    1ce8:	00000000 	nop
    1cec:	2442ffff 	addiu	v0,v0,-1
    1cf0:	0441000a 	bgez	v0,1d1c <release_dev+0x4a8>
    1cf4:	ae02011c 	sw	v0,284(s0)
    1cf8:	02002021 	move	a0,s0
    1cfc:	0c000000 	jal	0 <alloc_tty_struct>
			1cfc: R_MIPS_26	tty_name
    1d00:	27a50010 	addiu	a1,sp,16
    1d04:	3c040000 	lui	a0,0x0
			1d04: R_MIPS_HI16	.rodata
    1d08:	248403d4 	addiu	a0,a0,980
			1d08: R_MIPS_LO16	.rodata
    1d0c:	8e05011c 	lw	a1,284(s0)
    1d10:	0c000000 	jal	0 <alloc_tty_struct>
			1d10: R_MIPS_26	printk
    1d14:	00403021 	move	a2,v0
    1d18:	ae00011c 	sw	zero,284(s0)
    1d1c:	12c00016 	beqz	s6,1d78 <release_dev+0x504>
    1d20:	ae40005c 	sw	zero,92(s2)
    1d24:	40036000 	mfc0	v1,$12
    1d28:	00000000 	nop
    1d2c:	34610001 	ori	at,v1,0x1
    1d30:	38210001 	xori	at,at,0x1
    1d34:	40816000 	mtc0	at,$12
    1d38:	00000040 	sll	zero,zero,0x1
    1d3c:	00000040 	sll	zero,zero,0x1
    1d40:	00000040 	sll	zero,zero,0x1
    1d44:	8e020118 	lw	v0,280(s0)
    1d48:	00000000 	nop
    1d4c:	34420080 	ori	v0,v0,0x80
    1d50:	ae020118 	sw	v0,280(s0)
    1d54:	40016000 	mfc0	at,$12
    1d58:	30630001 	andi	v1,v1,0x1
    1d5c:	34210001 	ori	at,at,0x1
    1d60:	38210001 	xori	at,at,0x1
    1d64:	00611825 	or	v1,v1,at
    1d68:	40836000 	mtc0	v1,$12
    1d6c:	00000040 	sll	zero,zero,0x1
    1d70:	00000040 	sll	zero,zero,0x1
    1d74:	00000040 	sll	zero,zero,0x1
    1d78:	12e00016 	beqz	s7,1dd4 <release_dev+0x560>
    1d7c:	00000000 	nop
    1d80:	40036000 	mfc0	v1,$12
    1d84:	00000000 	nop
    1d88:	34610001 	ori	at,v1,0x1
    1d8c:	38210001 	xori	at,at,0x1
    1d90:	40816000 	mtc0	at,$12
    1d94:	00000040 	sll	zero,zero,0x1
    1d98:	00000040 	sll	zero,zero,0x1
    1d9c:	00000040 	sll	zero,zero,0x1
    1da0:	8e620118 	lw	v0,280(s3)
    1da4:	00000000 	nop
    1da8:	34420080 	ori	v0,v0,0x80
    1dac:	ae620118 	sw	v0,280(s3)
    1db0:	40016000 	mfc0	at,$12
    1db4:	30630001 	andi	v1,v1,0x1
    1db8:	34210001 	ori	at,at,0x1
    1dbc:	38210001 	xori	at,at,0x1
    1dc0:	00611825 	or	v1,v1,at
    1dc4:	40836000 	mtc0	v1,$12
    1dc8:	00000040 	sll	zero,zero,0x1
    1dcc:	00000040 	sll	zero,zero,0x1
    1dd0:	00000040 	sll	zero,zero,0x1
    1dd4:	16c00003 	bnez	s6,1de4 <release_dev+0x570>
    1dd8:	00000000 	nop
    1ddc:	12e00020 	beqz	s7,1e60 <release_dev+0x5ec>
    1de0:	00000000 	nop
    1de4:	3c030000 	lui	v1,0x0
			1de4: R_MIPS_HI16	init_task_union
    1de8:	8c630048 	lw	v1,72(v1)
			1de8: R_MIPS_LO16	init_task_union
    1dec:	3c020000 	lui	v0,0x0
			1dec: R_MIPS_HI16	init_task_union
    1df0:	24420000 	addiu	v0,v0,0
			1df0: R_MIPS_LO16	init_task_union
    1df4:	1062000f 	beq	v1,v0,1e34 <release_dev+0x5c0>
    1df8:	00000000 	nop
    1dfc:	00402021 	move	a0,v0
    1e00:	8c620258 	lw	v0,600(v1)
    1e04:	00000000 	nop
    1e08:	10500005 	beq	v0,s0,1e20 <release_dev+0x5ac>
    1e0c:	00000000 	nop
    1e10:	12600004 	beqz	s3,1e24 <release_dev+0x5b0>
    1e14:	00000000 	nop
    1e18:	14530002 	bne	v0,s3,1e24 <release_dev+0x5b0>
    1e1c:	00000000 	nop
    1e20:	ac600258 	sw	zero,600(v1)
    1e24:	8c630048 	lw	v1,72(v1)
    1e28:	00000000 	nop
    1e2c:	1464fff4 	bne	v1,a0,1e00 <release_dev+0x58c>
    1e30:	00000000 	nop
    1e34:	3c020000 	lui	v0,0x0
			1e34: R_MIPS_HI16	redirect
    1e38:	8c420000 	lw	v0,0(v0)
			1e38: R_MIPS_LO16	redirect
    1e3c:	00000000 	nop
    1e40:	10500005 	beq	v0,s0,1e58 <release_dev+0x5e4>
    1e44:	00000000 	nop
    1e48:	12600005 	beqz	s3,1e60 <release_dev+0x5ec>
    1e4c:	00000000 	nop
    1e50:	14530003 	bne	v0,s3,1e60 <release_dev+0x5ec>
    1e54:	00000000 	nop
    1e58:	3c010000 	lui	at,0x0
			1e58: R_MIPS_HI16	redirect
    1e5c:	ac200000 	sw	zero,0(at)
			1e5c: R_MIPS_LO16	redirect
    1e60:	12c0003f 	beqz	s6,1f60 <release_dev+0x6ec>
    1e64:	00000000 	nop
    1e68:	12600003 	beqz	s3,1e78 <release_dev+0x604>
    1e6c:	00000000 	nop
    1e70:	12e0003b 	beqz	s7,1f60 <release_dev+0x6ec>
    1e74:	00000000 	nop
    1e78:	8e0200d8 	lw	v0,216(s0)
    1e7c:	00000000 	nop
    1e80:	10400003 	beqz	v0,1e90 <release_dev+0x61c>
    1e84:	00000000 	nop
    1e88:	0040f809 	jalr	v0
    1e8c:	02002021 	move	a0,s0
    1e90:	260200c4 	addiu	v0,s0,196
    1e94:	3c030000 	lui	v1,0x0
			1e94: R_MIPS_HI16	ldiscs
    1e98:	24630000 	addiu	v1,v1,0
			1e98: R_MIPS_LO16	ldiscs
    1e9c:	24640040 	addiu	a0,v1,64
    1ea0:	8c650000 	lw	a1,0(v1)
    1ea4:	8c660004 	lw	a2,4(v1)
    1ea8:	8c670008 	lw	a3,8(v1)
    1eac:	8c68000c 	lw	t0,12(v1)
    1eb0:	ac450000 	sw	a1,0(v0)
    1eb4:	ac460004 	sw	a2,4(v0)
    1eb8:	ac470008 	sw	a3,8(v0)
    1ebc:	ac48000c 	sw	t0,12(v0)
    1ec0:	24630010 	addiu	v1,v1,16
    1ec4:	1464fff6 	bne	v1,a0,1ea0 <release_dev+0x62c>
    1ec8:	24420010 	addiu	v0,v0,16
    1ecc:	8e020104 	lw	v0,260(s0)
    1ed0:	12600016 	beqz	s3,1f2c <release_dev+0x6b8>
    1ed4:	a0400010 	sb	zero,16(v0)
    1ed8:	8e6200d8 	lw	v0,216(s3)
    1edc:	00000000 	nop
    1ee0:	10400003 	beqz	v0,1ef0 <release_dev+0x67c>
    1ee4:	00000000 	nop
    1ee8:	0040f809 	jalr	v0
    1eec:	02602021 	move	a0,s3
    1ef0:	266400c4 	addiu	a0,s3,196
    1ef4:	3c020000 	lui	v0,0x0
			1ef4: R_MIPS_HI16	ldiscs
    1ef8:	24420000 	addiu	v0,v0,0
			1ef8: R_MIPS_LO16	ldiscs
    1efc:	24430040 	addiu	v1,v0,64
    1f00:	8c450000 	lw	a1,0(v0)
    1f04:	8c460004 	lw	a2,4(v0)
    1f08:	8c470008 	lw	a3,8(v0)
    1f0c:	8c48000c 	lw	t0,12(v0)
    1f10:	ac850000 	sw	a1,0(a0)
    1f14:	ac860004 	sw	a2,4(a0)
    1f18:	ac870008 	sw	a3,8(a0)
    1f1c:	ac88000c 	sw	t0,12(a0)
    1f20:	24420010 	addiu	v0,v0,16
    1f24:	1443fff6 	bne	v0,v1,1f00 <release_dev+0x68c>
    1f28:	24840010 	addiu	a0,a0,16
    1f2c:	3c040000 	lui	a0,0x0
			1f2c: R_MIPS_HI16	tq_timer
    1f30:	24840000 	addiu	a0,a0,0
			1f30: R_MIPS_LO16	tq_timer
    1f34:	8c820000 	lw	v0,0(a0)
    1f38:	00000000 	nop
    1f3c:	10440003 	beq	v0,a0,1f4c <release_dev+0x6d8>
    1f40:	00000000 	nop
    1f44:	0c000000 	jal	0 <alloc_tty_struct>
			1f44: R_MIPS_26	__run_task_queue
    1f48:	00000000 	nop
    1f4c:	0c000000 	jal	0 <alloc_tty_struct>
			1f4c: R_MIPS_26	flush_scheduled_tasks
    1f50:	00000000 	nop
    1f54:	02002021 	move	a0,s0
    1f58:	0c0005d3 	jal	174c <release_mem>
			1f58: R_MIPS_26	.text
    1f5c:	02202821 	move	a1,s1
    1f60:	8fbf0074 	lw	ra,116(sp)
    1f64:	8fbe0070 	lw	s8,112(sp)
    1f68:	8fb7006c 	lw	s7,108(sp)
    1f6c:	8fb60068 	lw	s6,104(sp)
    1f70:	8fb50064 	lw	s5,100(sp)
    1f74:	8fb40060 	lw	s4,96(sp)
    1f78:	8fb3005c 	lw	s3,92(sp)
    1f7c:	8fb20058 	lw	s2,88(sp)
    1f80:	8fb10054 	lw	s1,84(sp)
    1f84:	8fb00050 	lw	s0,80(sp)
    1f88:	03e00008 	jr	ra
    1f8c:	27bd0078 	addiu	sp,sp,120

00001f90 <tty_open>:
    1f90:	27bdff80 	addiu	sp,sp,-128
    1f94:	afbf0078 	sw	ra,120(sp)
    1f98:	afb50074 	sw	s5,116(sp)
    1f9c:	afb40070 	sw	s4,112(sp)
    1fa0:	afb3006c 	sw	s3,108(sp)
    1fa4:	afb20068 	sw	s2,104(sp)
    1fa8:	afb10064 	sw	s1,100(sp)
    1fac:	afb00060 	sw	s0,96(sp)
    1fb0:	0080a821 	move	s5,a0
    1fb4:	00a09821 	move	s3,a1
    1fb8:	94b4001a 	lhu	s4,26(a1)
    1fbc:	8e620018 	lw	v0,24(s3)
    1fc0:	00000000 	nop
    1fc4:	30510800 	andi	s1,v0,0x800
    1fc8:	96a40040 	lhu	a0,64(s5)
    1fcc:	24020500 	li	v0,1280
    1fd0:	1482000d 	bne	a0,v0,2008 <tty_open+0x78>
    1fd4:	24020501 	li	v0,1281
    1fd8:	8f820258 	lw	v0,600(gp)
    1fdc:	00000000 	nop
    1fe0:	1040011c 	beqz	v0,2454 <tty_open+0x4c4>
    1fe4:	2403fffa 	li	v1,-6
    1fe8:	8f820258 	lw	v0,600(gp)
    1fec:	00000000 	nop
    1ff0:	94440114 	lhu	a0,276(v0)
    1ff4:	8e620018 	lw	v0,24(s3)
    1ff8:	00000000 	nop
    1ffc:	34420080 	ori	v0,v0,0x80
    2000:	ae620018 	sw	v0,24(s3)
    2004:	24020501 	li	v0,1281
    2008:	14820020 	bne	a0,v0,208c <tty_open+0xfc>
    200c:	24020502 	li	v0,1282
    2010:	3c040000 	lui	a0,0x0
			2010: R_MIPS_HI16	console_drivers
    2014:	8c840000 	lw	a0,0(a0)
			2014: R_MIPS_LO16	console_drivers
    2018:	00000000 	nop
    201c:	1080000f 	beqz	a0,205c <tty_open+0xcc>
    2020:	00000000 	nop
    2024:	8c820010 	lw	v0,16(a0)
    2028:	00000000 	nop
    202c:	14400009 	bnez	v0,2054 <tty_open+0xc4>
    2030:	00000000 	nop
    2034:	8c840024 	lw	a0,36(a0)
    2038:	00000000 	nop
    203c:	10800007 	beqz	a0,205c <tty_open+0xcc>
    2040:	00000000 	nop
    2044:	8c820010 	lw	v0,16(a0)
    2048:	00000000 	nop
    204c:	1040fff9 	beqz	v0,2034 <tty_open+0xa4>
    2050:	00000000 	nop
    2054:	14800003 	bnez	a0,2064 <tty_open+0xd4>
    2058:	00000000 	nop
    205c:	08000915 	j	2454 <tty_open+0x4c4>
			205c: R_MIPS_26	.text
    2060:	2403ffed 	li	v1,-19
    2064:	8c820010 	lw	v0,16(a0)
    2068:	00000000 	nop
    206c:	0040f809 	jalr	v0
    2070:	24110001 	li	s1,1
    2074:	00402021 	move	a0,v0
    2078:	8e620018 	lw	v0,24(s3)
    207c:	00000000 	nop
    2080:	34420080 	ori	v0,v0,0x80
    2084:	ae620018 	sw	v0,24(s3)
    2088:	24020502 	li	v0,1282
    208c:	14820059 	bne	a0,v0,21f4 <tty_open+0x264>
    2090:	00009021 	move	s2,zero
    2094:	00121040 	sll	v0,s2,0x1
    2098:	00521021 	addu	v0,v0,s2
    209c:	00021180 	sll	v0,v0,0x6
    20a0:	3c100000 	lui	s0,0x0
			20a0: R_MIPS_HI16	ptm_driver
    20a4:	26100000 	addiu	s0,s0,0
			20a4: R_MIPS_LO16	ptm_driver
    20a8:	02028021 	addu	s0,s0,v0
    20ac:	86110012 	lh	s1,18(s0)
    20b0:	86020014 	lh	v0,20(s0)
    20b4:	00000000 	nop
    20b8:	02221021 	addu	v0,s1,v0
    20bc:	0222102a 	slt	v0,s1,v0
    20c0:	10400012 	beqz	v0,210c <tty_open+0x17c>
    20c4:	00000000 	nop
    20c8:	86020010 	lh	v0,16(s0)
    20cc:	00000000 	nop
    20d0:	00021200 	sll	v0,v0,0x8
    20d4:	00511025 	or	v0,v0,s1
    20d8:	3044ffff 	andi	a0,v0,0xffff
    20dc:	0c00044c 	jal	1130 <init_dev>
			20dc: R_MIPS_26	.text
    20e0:	27a50058 	addiu	a1,sp,88
    20e4:	1040000e 	beqz	v0,2120 <tty_open+0x190>
    20e8:	00000000 	nop
    20ec:	26310001 	addiu	s1,s1,1
    20f0:	86020012 	lh	v0,18(s0)
    20f4:	86030014 	lh	v1,20(s0)
    20f8:	00000000 	nop
    20fc:	00431021 	addu	v0,v0,v1
    2100:	0222102a 	slt	v0,s1,v0
    2104:	1440fff0 	bnez	v0,20c8 <tty_open+0x138>
    2108:	00000000 	nop
    210c:	26520001 	addiu	s2,s2,1
    2110:	1e4000d0 	bgtz	s2,2454 <tty_open+0x4c4>
    2114:	2403fffb 	li	v1,-5
    2118:	08000826 	j	2098 <tty_open+0x108>
			2118: R_MIPS_26	.text
    211c:	00121040 	sll	v0,s2,0x1
    2120:	8fa50058 	lw	a1,88(sp)
    2124:	40046000 	mfc0	a0,$12
    2128:	00000000 	nop
    212c:	34810001 	ori	at,a0,0x1
    2130:	38210001 	xori	at,at,0x1
    2134:	40816000 	mtc0	at,$12
    2138:	00000040 	sll	zero,zero,0x1
    213c:	00000040 	sll	zero,zero,0x1
    2140:	00000040 	sll	zero,zero,0x1
    2144:	8ca20118 	lw	v0,280(a1)
    2148:	3c030001 	lui	v1,0x1
    214c:	00431025 	or	v0,v0,v1
    2150:	aca20118 	sw	v0,280(a1)
    2154:	40016000 	mfc0	at,$12
    2158:	30840001 	andi	a0,a0,0x1
    215c:	34210001 	ori	at,at,0x1
    2160:	38210001 	xori	at,at,0x1
    2164:	00812025 	or	a0,a0,at
    2168:	40846000 	mtc0	a0,$12
    216c:	00000040 	sll	zero,zero,0x1
    2170:	00000040 	sll	zero,zero,0x1
    2174:	00000040 	sll	zero,zero,0x1
    2178:	86020012 	lh	v0,18(s0)
    217c:	00000000 	nop
    2180:	02228823 	subu	s1,s1,v0
    2184:	8e020050 	lw	v0,80(s0)
    2188:	00000000 	nop
    218c:	8c44000c 	lw	a0,12(v0)
    2190:	00000000 	nop
    2194:	02242021 	addu	a0,s1,a0
    2198:	84450010 	lh	a1,16(v0)
    219c:	00000000 	nop
    21a0:	00052a00 	sll	a1,a1,0x8
    21a4:	94420012 	lhu	v0,18(v0)
    21a8:	00000000 	nop
    21ac:	02221021 	addu	v0,s1,v0
    21b0:	00a22825 	or	a1,a1,v0
    21b4:	0c000000 	jal	0 <alloc_tty_struct>
			21b4: R_MIPS_26	devpts_pty_new
    21b8:	30a5ffff 	andi	a1,a1,0xffff
    21bc:	00121840 	sll	v1,s2,0x1
    21c0:	00721821 	addu	v1,v1,s2
    21c4:	00031980 	sll	v1,v1,0x6
    21c8:	3c020000 	lui	v0,0x0
			21c8: R_MIPS_HI16	pts_driver
    21cc:	24420000 	addiu	v0,v0,0
			21cc: R_MIPS_LO16	pts_driver
    21d0:	00622021 	addu	a0,v1,v0
    21d4:	00431021 	addu	v0,v0,v1
    21d8:	84460012 	lh	a2,18(v0)
    21dc:	00000000 	nop
    21e0:	00d13021 	addu	a2,a2,s1
    21e4:	0c000000 	jal	0 <alloc_tty_struct>
			21e4: R_MIPS_26	tty_register_devfs
    21e8:	00002821 	move	a1,zero
    21ec:	08000881 	j	2204 <tty_open+0x274>
			21ec: R_MIPS_26	.text
    21f0:	24110001 	li	s1,1
    21f4:	0c00044c 	jal	1130 <init_dev>
			21f4: R_MIPS_26	.text
    21f8:	27a50058 	addiu	a1,sp,88
    21fc:	14400095 	bnez	v0,2454 <tty_open+0x4c4>
    2200:	00401821 	move	v1,v0
    2204:	8fa50058 	lw	a1,88(sp)
    2208:	00000000 	nop
    220c:	ae65005c 	sw	a1,92(s3)
    2210:	24a509ac 	addiu	a1,a1,2476
    2214:	0c000000 	jal	0 <alloc_tty_struct>
			2214: R_MIPS_26	file_move
    2218:	02602021 	move	a0,s3
    221c:	8fa40058 	lw	a0,88(sp)
    2220:	3c050000 	lui	a1,0x0
			2220: R_MIPS_HI16	.rodata
    2224:	0c00003d 	jal	f4 <check_tty_count>
			2224: R_MIPS_26	.text
    2228:	24a50400 	addiu	a1,a1,1024
			2228: R_MIPS_LO16	.rodata
    222c:	8fa40058 	lw	a0,88(sp)
    2230:	00000000 	nop
    2234:	8483001a 	lh	v1,26(a0)
    2238:	24020004 	li	v0,4
    223c:	14620006 	bne	v1,v0,2258 <tty_open+0x2c8>
    2240:	24020001 	li	v0,1
    2244:	8483001c 	lh	v1,28(a0)
    2248:	00000000 	nop
    224c:	14620002 	bne	v1,v0,2258 <tty_open+0x2c8>
    2250:	00000000 	nop
    2254:	24110001 	li	s1,1
    2258:	8c820068 	lw	v0,104(a0)
    225c:	00000000 	nop
    2260:	10400005 	beqz	v0,2278 <tty_open+0x2e8>
    2264:	00000000 	nop
    2268:	0040f809 	jalr	v0
    226c:	02602821 	move	a1,s3
    2270:	0800089f 	j	227c <tty_open+0x2ec>
			2270: R_MIPS_26	.text
    2274:	00408021 	move	s0,v0
    2278:	2410ffed 	li	s0,-19
    227c:	1600001f 	bnez	s0,22fc <tty_open+0x36c>
    2280:	ae740018 	sw	s4,24(s3)
    2284:	8fa20058 	lw	v0,88(sp)
    2288:	00000000 	nop
    228c:	8c420118 	lw	v0,280(v0)
    2290:	00000000 	nop
    2294:	000210c2 	srl	v0,v0,0x3
    2298:	30420001 	andi	v0,v0,0x1
    229c:	10400015 	beqz	v0,22f4 <tty_open+0x364>
    22a0:	00000000 	nop
    22a4:	3c020000 	lui	v0,0x0
			22a4: R_MIPS_HI16	securebits
    22a8:	8c420000 	lw	v0,0(v0)
			22a8: R_MIPS_LO16	securebits
    22ac:	00000000 	nop
    22b0:	30420001 	andi	v0,v0,0x1
    22b4:	1440000c 	bnez	v0,22e8 <tty_open+0x358>
    22b8:	00001021 	move	v0,zero
    22bc:	8f820130 	lw	v0,304(gp)
    22c0:	00000000 	nop
    22c4:	14400007 	bnez	v0,22e4 <tty_open+0x354>
    22c8:	00000000 	nop
    22cc:	8f820004 	lw	v0,4(gp)
    22d0:	00000000 	nop
    22d4:	34420100 	ori	v0,v0,0x100
    22d8:	af820004 	sw	v0,4(gp)
    22dc:	080008ba 	j	22e8 <tty_open+0x358>
			22dc: R_MIPS_26	.text
    22e0:	24020001 	li	v0,1
    22e4:	00001021 	move	v0,zero
    22e8:	14400002 	bnez	v0,22f4 <tty_open+0x364>
    22ec:	00000000 	nop
    22f0:	2410fff0 	li	s0,-16
    22f4:	12000010 	beqz	s0,2338 <tty_open+0x3a8>
    22f8:	00000000 	nop
    22fc:	0c00061d 	jal	1874 <release_dev>
			22fc: R_MIPS_26	.text
    2300:	02602021 	move	a0,s3
    2304:	2402fe00 	li	v0,-512
    2308:	16020052 	bne	s0,v0,2454 <tty_open+0x4c4>
    230c:	02001821 	move	v1,s0
    2310:	8f820008 	lw	v0,8(gp)
    2314:	00000000 	nop
    2318:	1440004f 	bnez	v0,2458 <tty_open+0x4c8>
    231c:	00601021 	move	v0,v1
    2320:	0c000000 	jal	0 <alloc_tty_struct>
			2320: R_MIPS_26	schedule
    2324:	00000000 	nop
    2328:	3c020000 	lui	v0,0x0
			2328: R_MIPS_HI16	.data
    232c:	24420000 	addiu	v0,v0,0
			232c: R_MIPS_LO16	.data
    2330:	080007ef 	j	1fbc <tty_open+0x2c>
			2330: R_MIPS_26	.text
    2334:	ae620010 	sw	v0,16(s3)
    2338:	16200019 	bnez	s1,23a0 <tty_open+0x410>
    233c:	00000000 	nop
    2340:	8f820090 	lw	v0,144(gp)
    2344:	00000000 	nop
    2348:	10400015 	beqz	v0,23a0 <tty_open+0x410>
    234c:	00000000 	nop
    2350:	8f820258 	lw	v0,600(gp)
    2354:	00000000 	nop
    2358:	14400011 	bnez	v0,23a0 <tty_open+0x410>
    235c:	00000000 	nop
    2360:	8fa30058 	lw	v1,88(sp)
    2364:	00000000 	nop
    2368:	8c620110 	lw	v0,272(v1)
    236c:	00000000 	nop
    2370:	1440000b 	bnez	v0,23a0 <tty_open+0x410>
    2374:	00000000 	nop
    2378:	af830258 	sw	v1,600(gp)
    237c:	af800084 	sw	zero,132(gp)
    2380:	8f830088 	lw	v1,136(gp)
    2384:	8fa20058 	lw	v0,88(sp)
    2388:	00000000 	nop
    238c:	ac430110 	sw	v1,272(v0)
    2390:	8f830080 	lw	v1,128(gp)
    2394:	8fa20058 	lw	v0,88(sp)
    2398:	00000000 	nop
    239c:	ac43010c 	sw	v1,268(v0)
    23a0:	8fa40058 	lw	a0,88(sp)
    23a4:	00000000 	nop
    23a8:	8483001a 	lh	v1,26(a0)
    23ac:	24020003 	li	v0,3
    23b0:	14620028 	bne	v1,v0,2454 <tty_open+0x4c4>
    23b4:	00001821 	move	v1,zero
    23b8:	8483001c 	lh	v1,28(a0)
    23bc:	24020002 	li	v0,2
    23c0:	14620024 	bne	v1,v0,2454 <tty_open+0x4c4>
    23c4:	00001821 	move	v1,zero
    23c8:	8c83011c 	lw	v1,284(a0)
    23cc:	24020001 	li	v0,1
    23d0:	14620020 	bne	v1,v0,2454 <tty_open+0x4c4>
    23d4:	00001821 	move	v1,zero
    23d8:	3c020000 	lui	v0,0x0
			23d8: R_MIPS_HI16	.bss
    23dc:	8c420000 	lw	v0,0(v0)
			23dc: R_MIPS_LO16	.bss
    23e0:	00000000 	nop
    23e4:	28420005 	slti	v0,v0,5
    23e8:	1040001b 	beqz	v0,2458 <tty_open+0x4c8>
    23ec:	00601021 	move	v0,v1
    23f0:	0c000000 	jal	0 <alloc_tty_struct>
			23f0: R_MIPS_26	tty_name
    23f4:	27a50018 	addiu	a1,sp,24
    23f8:	2786023e 	addiu	a2,gp,574
    23fc:	8fa40058 	lw	a0,88(sp)
    2400:	00000000 	nop
    2404:	90830115 	lbu	v1,277(a0)
    2408:	84850016 	lh	a1,22(a0)
    240c:	00000000 	nop
    2410:	00651823 	subu	v1,v1,a1
    2414:	8c840010 	lw	a0,16(a0)
    2418:	00000000 	nop
    241c:	00641821 	addu	v1,v1,a0
    2420:	afa30010 	sw	v1,16(sp)
    2424:	3c040000 	lui	a0,0x0
			2424: R_MIPS_HI16	.rodata
    2428:	2484040c 	addiu	a0,a0,1036
			2428: R_MIPS_LO16	.rodata
    242c:	8f85007c 	lw	a1,124(gp)
    2430:	0c000000 	jal	0 <alloc_tty_struct>
			2430: R_MIPS_26	printk
    2434:	00403821 	move	a3,v0
    2438:	3c020000 	lui	v0,0x0
			2438: R_MIPS_HI16	.bss
    243c:	8c420000 	lw	v0,0(v0)
			243c: R_MIPS_LO16	.bss
    2440:	00000000 	nop
    2444:	24420001 	addiu	v0,v0,1
    2448:	3c010000 	lui	at,0x0
			2448: R_MIPS_HI16	.bss
    244c:	ac220000 	sw	v0,0(at)
			244c: R_MIPS_LO16	.bss
    2450:	00001821 	move	v1,zero
    2454:	00601021 	move	v0,v1
    2458:	8fbf0078 	lw	ra,120(sp)
    245c:	8fb50074 	lw	s5,116(sp)
    2460:	8fb40070 	lw	s4,112(sp)
    2464:	8fb3006c 	lw	s3,108(sp)
    2468:	8fb20068 	lw	s2,104(sp)
    246c:	8fb10064 	lw	s1,100(sp)
    2470:	8fb00060 	lw	s0,96(sp)
    2474:	03e00008 	jr	ra
    2478:	27bd0080 	addiu	sp,sp,128

0000247c <tty_release>:
    247c:	27bdffe8 	addiu	sp,sp,-24
    2480:	afbf0010 	sw	ra,16(sp)
    2484:	0c00061d 	jal	1874 <release_dev>
			2484: R_MIPS_26	.text
    2488:	00a02021 	move	a0,a1
    248c:	00001021 	move	v0,zero
    2490:	8fbf0010 	lw	ra,16(sp)
    2494:	00000000 	nop
    2498:	03e00008 	jr	ra
    249c:	27bd0018 	addiu	sp,sp,24

000024a0 <tty_poll>:
    24a0:	27bdffd8 	addiu	sp,sp,-40
    24a4:	afbf0020 	sw	ra,32(sp)
    24a8:	afb3001c 	sw	s3,28(sp)
    24ac:	afb20018 	sw	s2,24(sp)
    24b0:	afb10014 	sw	s1,20(sp)
    24b4:	afb00010 	sw	s0,16(sp)
    24b8:	00808821 	move	s1,a0
    24bc:	8c90005c 	lw	s0,92(a0)
    24c0:	8c820008 	lw	v0,8(a0)
    24c4:	00000000 	nop
    24c8:	8c420008 	lw	v0,8(v0)
    24cc:	00000000 	nop
    24d0:	94440040 	lhu	a0,64(v0)
    24d4:	3c120000 	lui	s2,0x0
			24d4: R_MIPS_HI16	.rodata
    24d8:	26520468 	addiu	s2,s2,1128
			24d8: R_MIPS_LO16	.rodata
    24dc:	16000007 	bnez	s0,24fc <tty_poll+0x5c>
    24e0:	00a09821 	move	s3,a1
    24e4:	0c000000 	jal	0 <alloc_tty_struct>
			24e4: R_MIPS_26	kdevname
    24e8:	00000000 	nop
    24ec:	3c040000 	lui	a0,0x0
			24ec: R_MIPS_HI16	.rodata
    24f0:	2484011c 	addiu	a0,a0,284
			24f0: R_MIPS_LO16	.rodata
    24f4:	08000948 	j	2520 <tty_poll+0x80>
			24f4: R_MIPS_26	.text
    24f8:	00402821 	move	a1,v0
    24fc:	8e030000 	lw	v1,0(s0)
    2500:	24025401 	li	v0,21505
    2504:	1062000a 	beq	v1,v0,2530 <tty_poll+0x90>
    2508:	00000000 	nop
    250c:	0c000000 	jal	0 <alloc_tty_struct>
			250c: R_MIPS_26	kdevname
    2510:	00000000 	nop
    2514:	3c040000 	lui	a0,0x0
			2514: R_MIPS_HI16	.rodata
    2518:	248400e4 	addiu	a0,a0,228
			2518: R_MIPS_LO16	.rodata
    251c:	00402821 	move	a1,v0
    2520:	0c000000 	jal	0 <alloc_tty_struct>
			2520: R_MIPS_26	printk
    2524:	02403021 	move	a2,s2
    2528:	0800094d 	j	2534 <tty_poll+0x94>
			2528: R_MIPS_26	.text
    252c:	24030001 	li	v1,1
    2530:	00001821 	move	v1,zero
    2534:	1460000b 	bnez	v1,2564 <tty_poll+0xc4>
    2538:	00001021 	move	v0,zero
    253c:	8e0200f4 	lw	v0,244(s0)
    2540:	00000000 	nop
    2544:	10400006 	beqz	v0,2560 <tty_poll+0xc0>
    2548:	02002021 	move	a0,s0
    254c:	02202821 	move	a1,s1
    2550:	0040f809 	jalr	v0
    2554:	02603021 	move	a2,s3
    2558:	08000959 	j	2564 <tty_poll+0xc4>
			2558: R_MIPS_26	.text
    255c:	00000000 	nop
    2560:	00001021 	move	v0,zero
    2564:	8fbf0020 	lw	ra,32(sp)
    2568:	8fb3001c 	lw	s3,28(sp)
    256c:	8fb20018 	lw	s2,24(sp)
    2570:	8fb10014 	lw	s1,20(sp)
    2574:	8fb00010 	lw	s0,16(sp)
    2578:	03e00008 	jr	ra
    257c:	27bd0028 	addiu	sp,sp,40

00002580 <tty_fasync>:
    2580:	27bdffd8 	addiu	sp,sp,-40
    2584:	afbf0024 	sw	ra,36(sp)
    2588:	afb40020 	sw	s4,32(sp)
    258c:	afb3001c 	sw	s3,28(sp)
    2590:	afb20018 	sw	s2,24(sp)
    2594:	afb10014 	sw	s1,20(sp)
    2598:	afb00010 	sw	s0,16(sp)
    259c:	00809821 	move	s3,a0
    25a0:	00a08821 	move	s1,a1
    25a4:	8cb0005c 	lw	s0,92(a1)
    25a8:	8ca20008 	lw	v0,8(a1)
    25ac:	00000000 	nop
    25b0:	8c420008 	lw	v0,8(v0)
    25b4:	00000000 	nop
    25b8:	94440040 	lhu	a0,64(v0)
    25bc:	3c120000 	lui	s2,0x0
			25bc: R_MIPS_HI16	.rodata
    25c0:	26520474 	addiu	s2,s2,1140
			25c0: R_MIPS_LO16	.rodata
    25c4:	16000007 	bnez	s0,25e4 <tty_fasync+0x64>
    25c8:	00c0a021 	move	s4,a2
    25cc:	0c000000 	jal	0 <alloc_tty_struct>
			25cc: R_MIPS_26	kdevname
    25d0:	00000000 	nop
    25d4:	3c040000 	lui	a0,0x0
			25d4: R_MIPS_HI16	.rodata
    25d8:	2484011c 	addiu	a0,a0,284
			25d8: R_MIPS_LO16	.rodata
    25dc:	08000982 	j	2608 <tty_fasync+0x88>
			25dc: R_MIPS_26	.text
    25e0:	00402821 	move	a1,v0
    25e4:	8e030000 	lw	v1,0(s0)
    25e8:	24025401 	li	v0,21505
    25ec:	1062000a 	beq	v1,v0,2618 <tty_fasync+0x98>
    25f0:	00000000 	nop
    25f4:	0c000000 	jal	0 <alloc_tty_struct>
			25f4: R_MIPS_26	kdevname
    25f8:	00000000 	nop
    25fc:	3c040000 	lui	a0,0x0
			25fc: R_MIPS_HI16	.rodata
    2600:	248400e4 	addiu	a0,a0,228
			2600: R_MIPS_LO16	.rodata
    2604:	00402821 	move	a1,v0
    2608:	0c000000 	jal	0 <alloc_tty_struct>
			2608: R_MIPS_26	printk
    260c:	02403021 	move	a2,s2
    2610:	08000987 	j	261c <tty_fasync+0x9c>
			2610: R_MIPS_26	.text
    2614:	24020001 	li	v0,1
    2618:	00001021 	move	v0,zero
    261c:	14400033 	bnez	v0,26ec <tty_fasync+0x16c>
    2620:	00001821 	move	v1,zero
    2624:	26070130 	addiu	a3,s0,304
    2628:	02602021 	move	a0,s3
    262c:	02202821 	move	a1,s1
    2630:	0c000000 	jal	0 <alloc_tty_struct>
			2630: R_MIPS_26	fasync_helper
    2634:	02803021 	move	a2,s4
    2638:	1840002c 	blez	v0,26ec <tty_fasync+0x16c>
    263c:	00401821 	move	v1,v0
    2640:	1280001b 	beqz	s4,26b0 <tty_fasync+0x130>
    2644:	26030988 	addiu	v1,s0,2440
    2648:	8e020988 	lw	v0,2440(s0)
    264c:	00000000 	nop
    2650:	00431026 	xor	v0,v0,v1
    2654:	2c420001 	sltiu	v0,v0,1
    2658:	2c420001 	sltiu	v0,v0,1
    265c:	14400002 	bnez	v0,2668 <tty_fasync+0xe8>
    2660:	24020001 	li	v0,1
    2664:	a60209ba 	sh	v0,2490(s0)
    2668:	8e22003c 	lw	v0,60(s1)
    266c:	00000000 	nop
    2670:	1440001e 	bnez	v0,26ec <tty_fasync+0x16c>
    2674:	00001821 	move	v1,zero
    2678:	8e02010c 	lw	v0,268(s0)
    267c:	00000000 	nop
    2680:	00021023 	negu	v0,v0
    2684:	14400003 	bnez	v0,2694 <tty_fasync+0x114>
    2688:	00401821 	move	v1,v0
    268c:	8f83007c 	lw	v1,124(gp)
    2690:	00000000 	nop
    2694:	ae23003c 	sw	v1,60(s1)
    2698:	8f82012c 	lw	v0,300(gp)
    269c:	00000000 	nop
    26a0:	ae220040 	sw	v0,64(s1)
    26a4:	8f820130 	lw	v0,304(gp)
    26a8:	080009ba 	j	26e8 <tty_fasync+0x168>
			26a8: R_MIPS_26	.text
    26ac:	ae220044 	sw	v0,68(s1)
    26b0:	8e020130 	lw	v0,304(s0)
    26b4:	00000000 	nop
    26b8:	1440000c 	bnez	v0,26ec <tty_fasync+0x16c>
    26bc:	00001821 	move	v1,zero
    26c0:	26030988 	addiu	v1,s0,2440
    26c4:	8e020988 	lw	v0,2440(s0)
    26c8:	00000000 	nop
    26cc:	00431026 	xor	v0,v0,v1
    26d0:	2c420001 	sltiu	v0,v0,1
    26d4:	2c420001 	sltiu	v0,v0,1
    26d8:	14400004 	bnez	v0,26ec <tty_fasync+0x16c>
    26dc:	00001821 	move	v1,zero
    26e0:	24021000 	li	v0,4096
    26e4:	a60209ba 	sh	v0,2490(s0)
    26e8:	00001821 	move	v1,zero
    26ec:	00601021 	move	v0,v1
    26f0:	8fbf0024 	lw	ra,36(sp)
    26f4:	8fb40020 	lw	s4,32(sp)
    26f8:	8fb3001c 	lw	s3,28(sp)
    26fc:	8fb20018 	lw	s2,24(sp)
    2700:	8fb10014 	lw	s1,20(sp)
    2704:	8fb00010 	lw	s0,16(sp)
    2708:	03e00008 	jr	ra
    270c:	27bd0028 	addiu	sp,sp,40

00002710 <tiocsti>:
    2710:	27bdffe0 	addiu	sp,sp,-32
    2714:	afbf0018 	sw	ra,24(sp)
    2718:	a3a00011 	sb	zero,17(sp)
    271c:	8f820258 	lw	v0,600(gp)
    2720:	00000000 	nop
    2724:	10440012 	beq	v0,a0,2770 <tiocsti+0x60>
    2728:	00000000 	nop
    272c:	3c020000 	lui	v0,0x0
			272c: R_MIPS_HI16	securebits
    2730:	8c420000 	lw	v0,0(v0)
			2730: R_MIPS_LO16	securebits
    2734:	00000000 	nop
    2738:	30420001 	andi	v0,v0,0x1
    273c:	1440000a 	bnez	v0,2768 <tiocsti+0x58>
    2740:	00001821 	move	v1,zero
    2744:	8f820130 	lw	v0,304(gp)
    2748:	00000000 	nop
    274c:	14400006 	bnez	v0,2768 <tiocsti+0x58>
    2750:	00000000 	nop
    2754:	8f820004 	lw	v0,4(gp)
    2758:	00000000 	nop
    275c:	34420100 	ori	v0,v0,0x100
    2760:	af820004 	sw	v0,4(gp)
    2764:	24030001 	li	v1,1
    2768:	1060000c 	beqz	v1,279c <tiocsti+0x8c>
    276c:	2402ffff 	li	v0,-1
    2770:	80a20000 	lb	v0,0(a1)
    2774:	00001821 	move	v1,zero
    2778:	a3a20010 	sb	v0,16(sp)
    277c:	14600007 	bnez	v1,279c <tiocsti+0x8c>
    2780:	2402fff2 	li	v0,-14
    2784:	8c8200f8 	lw	v0,248(a0)
    2788:	27a50010 	addiu	a1,sp,16
    278c:	27a60011 	addiu	a2,sp,17
    2790:	0040f809 	jalr	v0
    2794:	24070001 	li	a3,1
    2798:	00001021 	move	v0,zero
    279c:	8fbf0018 	lw	ra,24(sp)
    27a0:	00000000 	nop
    27a4:	03e00008 	jr	ra
    27a8:	27bd0020 	addiu	sp,sp,32

000027ac <tiocgwinsz>:
    27ac:	27bdfff8 	addiu	sp,sp,-8
    27b0:	afbf0000 	sw	ra,0(sp)
    27b4:	00801021 	move	v0,a0
    27b8:	00a02021 	move	a0,a1
    27bc:	24420120 	addiu	v0,v0,288
    27c0:	00402821 	move	a1,v0
    27c4:	0c000000 	jal	0 <alloc_tty_struct>
			27c4: R_MIPS_26	__copy_user
    27c8:	24060008 	li	a2,8
    27cc:	14c00002 	bnez	a2,27d8 <tiocgwinsz+0x2c>
    27d0:	2402fff2 	li	v0,-14
    27d4:	00001021 	move	v0,zero
    27d8:	8fbf0000 	lw	ra,0(sp)
    27dc:	00000000 	nop
    27e0:	03e00008 	jr	ra
    27e4:	27bd0008 	addiu	sp,sp,8

000027e8 <tiocswinsz>:
    27e8:	27bdffd8 	addiu	sp,sp,-40
    27ec:	afbf0020 	sw	ra,32(sp)
    27f0:	afb1001c 	sw	s1,28(sp)
    27f4:	afb00018 	sw	s0,24(sp)
    27f8:	00808021 	move	s0,a0
    27fc:	00a08821 	move	s1,a1
    2800:	00c02821 	move	a1,a2
    2804:	27a40010 	addiu	a0,sp,16
    2808:	24060008 	li	a2,8
    280c:	0c000000 	jal	0 <alloc_tty_struct>
			280c: R_MIPS_26	__copy_user
    2810:	00a60821 	addu	at,a1,a2
    2814:	14c0001f 	bnez	a2,2894 <tiocswinsz+0xac>
    2818:	2403fff2 	li	v1,-14
    281c:	26050120 	addiu	a1,s0,288
    2820:	27a40010 	addiu	a0,sp,16
    2824:	0c000000 	jal	0 <alloc_tty_struct>
			2824: R_MIPS_26	memcmp
    2828:	24060008 	li	a2,8
    282c:	10400019 	beqz	v0,2894 <tiocswinsz+0xac>
    2830:	00001821 	move	v1,zero
    2834:	8e04010c 	lw	a0,268(s0)
    2838:	00000000 	nop
    283c:	18800003 	blez	a0,284c <tiocswinsz+0x64>
    2840:	24050014 	li	a1,20
    2844:	0c000000 	jal	0 <alloc_tty_struct>
			2844: R_MIPS_26	kill_pg
    2848:	24060001 	li	a2,1
    284c:	8e24010c 	lw	a0,268(s1)
    2850:	8e02010c 	lw	v0,268(s0)
    2854:	00000000 	nop
    2858:	10820005 	beq	a0,v0,2870 <tiocswinsz+0x88>
    285c:	00000000 	nop
    2860:	18800003 	blez	a0,2870 <tiocswinsz+0x88>
    2864:	24050014 	li	a1,20
    2868:	0c000000 	jal	0 <alloc_tty_struct>
			2868: R_MIPS_26	kill_pg
    286c:	24060001 	li	a2,1
    2870:	8fa30010 	lw	v1,16(sp)
    2874:	00000000 	nop
    2878:	ae030120 	sw	v1,288(s0)
    287c:	8fa20014 	lw	v0,20(sp)
    2880:	00000000 	nop
    2884:	ae020124 	sw	v0,292(s0)
    2888:	ae230120 	sw	v1,288(s1)
    288c:	ae220124 	sw	v0,292(s1)
    2890:	00001821 	move	v1,zero
    2894:	00601021 	move	v0,v1
    2898:	8fbf0020 	lw	ra,32(sp)
    289c:	8fb1001c 	lw	s1,28(sp)
    28a0:	8fb00018 	lw	s0,24(sp)
    28a4:	03e00008 	jr	ra
    28a8:	27bd0028 	addiu	sp,sp,40

000028ac <tioccons>:
    28ac:	94830040 	lhu	v1,64(a0)
    28b0:	24020501 	li	v0,1281
    28b4:	10620003 	beq	v1,v0,28c4 <tioccons+0x18>
    28b8:	24020400 	li	v0,1024
    28bc:	14620018 	bne	v1,v0,2920 <tioccons+0x74>
    28c0:	00000000 	nop
    28c4:	3c020000 	lui	v0,0x0
			28c4: R_MIPS_HI16	securebits
    28c8:	8c420000 	lw	v0,0(v0)
			28c8: R_MIPS_LO16	securebits
    28cc:	00000000 	nop
    28d0:	30420001 	andi	v0,v0,0x1
    28d4:	1440000c 	bnez	v0,2908 <tioccons+0x5c>
    28d8:	00001021 	move	v0,zero
    28dc:	8f820130 	lw	v0,304(gp)
    28e0:	00000000 	nop
    28e4:	14400007 	bnez	v0,2904 <tioccons+0x58>
    28e8:	00000000 	nop
    28ec:	8f820004 	lw	v0,4(gp)
    28f0:	00000000 	nop
    28f4:	34420100 	ori	v0,v0,0x100
    28f8:	af820004 	sw	v0,4(gp)
    28fc:	08000a42 	j	2908 <tioccons+0x5c>
			28fc: R_MIPS_26	.text
    2900:	24020001 	li	v0,1
    2904:	00001021 	move	v0,zero
    2908:	1040000d 	beqz	v0,2940 <tioccons+0x94>
    290c:	2403ffff 	li	v1,-1
    2910:	3c010000 	lui	at,0x0
			2910: R_MIPS_HI16	redirect
    2914:	ac200000 	sw	zero,0(at)
			2914: R_MIPS_LO16	redirect
    2918:	08000a50 	j	2940 <tioccons+0x94>
			2918: R_MIPS_26	.text
    291c:	00001821 	move	v1,zero
    2920:	3c020000 	lui	v0,0x0
			2920: R_MIPS_HI16	redirect
    2924:	8c420000 	lw	v0,0(v0)
			2924: R_MIPS_LO16	redirect
    2928:	00000000 	nop
    292c:	14400004 	bnez	v0,2940 <tioccons+0x94>
    2930:	2403fff0 	li	v1,-16
    2934:	3c010000 	lui	at,0x0
			2934: R_MIPS_HI16	redirect
    2938:	ac260000 	sw	a2,0(at)
			2938: R_MIPS_LO16	redirect
    293c:	00001821 	move	v1,zero
    2940:	03e00008 	jr	ra
    2944:	00601021 	move	v0,v1

00002948 <fionbio>:
    2948:	27bdfff0 	addiu	sp,sp,-16
    294c:	8ca30000 	lw	v1,0(a1)
    2950:	00001021 	move	v0,zero
    2954:	1440000b 	bnez	v0,2984 <fionbio+0x3c>
    2958:	2405fff2 	li	a1,-14
    295c:	10600004 	beqz	v1,2970 <fionbio+0x28>
    2960:	2403ff7f 	li	v1,-129
    2964:	8c820018 	lw	v0,24(a0)
    2968:	08000a5f 	j	297c <fionbio+0x34>
			2968: R_MIPS_26	.text
    296c:	34420080 	ori	v0,v0,0x80
    2970:	8c820018 	lw	v0,24(a0)
    2974:	00000000 	nop
    2978:	00431024 	and	v0,v0,v1
    297c:	ac820018 	sw	v0,24(a0)
    2980:	00002821 	move	a1,zero
    2984:	00a01021 	move	v0,a1
    2988:	03e00008 	jr	ra
    298c:	27bd0010 	addiu	sp,sp,16

00002990 <tiocsctty>:
    2990:	8f820090 	lw	v0,144(gp)
    2994:	00000000 	nop
    2998:	10400008 	beqz	v0,29bc <tiocsctty+0x2c>
    299c:	00000000 	nop
    29a0:	8f830088 	lw	v1,136(gp)
    29a4:	8c820110 	lw	v0,272(a0)
    29a8:	00000000 	nop
    29ac:	1062003f 	beq	v1,v0,2aac <tiocsctty+0x11c>
    29b0:	00003021 	move	a2,zero
    29b4:	8f820090 	lw	v0,144(gp)
    29b8:	00000000 	nop
    29bc:	10400030 	beqz	v0,2a80 <tiocsctty+0xf0>
    29c0:	00000000 	nop
    29c4:	8f820258 	lw	v0,600(gp)
    29c8:	00000000 	nop
    29cc:	1440002c 	bnez	v0,2a80 <tiocsctty+0xf0>
    29d0:	00000000 	nop
    29d4:	8c820110 	lw	v0,272(a0)
    29d8:	00000000 	nop
    29dc:	1840002a 	blez	v0,2a88 <tiocsctty+0xf8>
    29e0:	00000000 	nop
    29e4:	24020001 	li	v0,1
    29e8:	14a20025 	bne	a1,v0,2a80 <tiocsctty+0xf0>
    29ec:	00000000 	nop
    29f0:	3c020000 	lui	v0,0x0
			29f0: R_MIPS_HI16	securebits
    29f4:	8c420000 	lw	v0,0(v0)
			29f4: R_MIPS_LO16	securebits
    29f8:	00000000 	nop
    29fc:	30420001 	andi	v0,v0,0x1
    2a00:	1440000c 	bnez	v0,2a34 <tiocsctty+0xa4>
    2a04:	00001021 	move	v0,zero
    2a08:	8f820130 	lw	v0,304(gp)
    2a0c:	00000000 	nop
    2a10:	14400007 	bnez	v0,2a30 <tiocsctty+0xa0>
    2a14:	00000000 	nop
    2a18:	8f820004 	lw	v0,4(gp)
    2a1c:	00000000 	nop
    2a20:	34420100 	ori	v0,v0,0x100
    2a24:	af820004 	sw	v0,4(gp)
    2a28:	08000a8d 	j	2a34 <tiocsctty+0xa4>
			2a28: R_MIPS_26	.text
    2a2c:	24020001 	li	v0,1
    2a30:	00001021 	move	v0,zero
    2a34:	1040001d 	beqz	v0,2aac <tiocsctty+0x11c>
    2a38:	2406ffff 	li	a2,-1
    2a3c:	3c030000 	lui	v1,0x0
			2a3c: R_MIPS_HI16	init_task_union
    2a40:	8c630048 	lw	v1,72(v1)
			2a40: R_MIPS_LO16	init_task_union
    2a44:	3c020000 	lui	v0,0x0
			2a44: R_MIPS_HI16	init_task_union
    2a48:	24420000 	addiu	v0,v0,0
			2a48: R_MIPS_LO16	init_task_union
    2a4c:	1062000e 	beq	v1,v0,2a88 <tiocsctty+0xf8>
    2a50:	00402821 	move	a1,v0
    2a54:	8c620258 	lw	v0,600(v1)
    2a58:	00000000 	nop
    2a5c:	14440002 	bne	v0,a0,2a68 <tiocsctty+0xd8>
    2a60:	00000000 	nop
    2a64:	ac600258 	sw	zero,600(v1)
    2a68:	8c630048 	lw	v1,72(v1)
    2a6c:	00000000 	nop
    2a70:	10650005 	beq	v1,a1,2a88 <tiocsctty+0xf8>
    2a74:	00000000 	nop
    2a78:	08000a95 	j	2a54 <tiocsctty+0xc4>
			2a78: R_MIPS_26	.text
    2a7c:	00000000 	nop
    2a80:	08000aab 	j	2aac <tiocsctty+0x11c>
			2a80: R_MIPS_26	.text
    2a84:	2406ffff 	li	a2,-1
    2a88:	af840258 	sw	a0,600(gp)
    2a8c:	af800084 	sw	zero,132(gp)
    2a90:	8f820088 	lw	v0,136(gp)
    2a94:	00000000 	nop
    2a98:	ac820110 	sw	v0,272(a0)
    2a9c:	8f820080 	lw	v0,128(gp)
    2aa0:	00000000 	nop
    2aa4:	ac82010c 	sw	v0,268(a0)
    2aa8:	00003021 	move	a2,zero
    2aac:	03e00008 	jr	ra
    2ab0:	00c01021 	move	v0,a2

00002ab4 <tiocgpgrp>:
    2ab4:	14850005 	bne	a0,a1,2acc <tiocgpgrp+0x18>
    2ab8:	27bdfff0 	addiu	sp,sp,-16
    2abc:	8f820258 	lw	v0,600(gp)
    2ac0:	00000000 	nop
    2ac4:	14450005 	bne	v0,a1,2adc <tiocgpgrp+0x28>
    2ac8:	2403ffe7 	li	v1,-25
    2acc:	8ca2010c 	lw	v0,268(a1)
    2ad0:	00000000 	nop
    2ad4:	acc20000 	sw	v0,0(a2)
    2ad8:	00001821 	move	v1,zero
    2adc:	00601021 	move	v0,v1
    2ae0:	03e00008 	jr	ra
    2ae4:	27bd0010 	addiu	sp,sp,16

00002ae8 <tiocspgrp>:
    2ae8:	27bdffe0 	addiu	sp,sp,-32
    2aec:	afbf0018 	sw	ra,24(sp)
    2af0:	afb10014 	sw	s1,20(sp)
    2af4:	afb00010 	sw	s0,16(sp)
    2af8:	00a08021 	move	s0,a1
    2afc:	00c08821 	move	s1,a2
    2b00:	0c000000 	jal	0 <alloc_tty_struct>
			2b00: R_MIPS_26	tty_check_change
    2b04:	00a02021 	move	a0,a1
    2b08:	00401821 	move	v1,v0
    2b0c:	2402fffb 	li	v0,-5
    2b10:	1062001e 	beq	v1,v0,2b8c <tiocspgrp+0xa4>
    2b14:	2404ffe7 	li	a0,-25
    2b18:	1460001c 	bnez	v1,2b8c <tiocspgrp+0xa4>
    2b1c:	00602021 	move	a0,v1
    2b20:	8f820258 	lw	v0,600(gp)
    2b24:	00000000 	nop
    2b28:	10400008 	beqz	v0,2b4c <tiocspgrp+0x64>
    2b2c:	00000000 	nop
    2b30:	14500006 	bne	v0,s0,2b4c <tiocspgrp+0x64>
    2b34:	00000000 	nop
    2b38:	8e030110 	lw	v1,272(s0)
    2b3c:	8f820088 	lw	v0,136(gp)
    2b40:	00000000 	nop
    2b44:	10620003 	beq	v1,v0,2b54 <tiocspgrp+0x6c>
    2b48:	00000000 	nop
    2b4c:	08000ae3 	j	2b8c <tiocspgrp+0xa4>
			2b4c: R_MIPS_26	.text
    2b50:	2404ffe7 	li	a0,-25
    2b54:	8e310000 	lw	s1,0(s1)
    2b58:	00001021 	move	v0,zero
    2b5c:	1440000b 	bnez	v0,2b8c <tiocspgrp+0xa4>
    2b60:	2404fff2 	li	a0,-14
    2b64:	06200009 	bltz	s1,2b8c <tiocspgrp+0xa4>
    2b68:	2404ffea 	li	a0,-22
    2b6c:	0c000000 	jal	0 <alloc_tty_struct>
			2b6c: R_MIPS_26	session_of_pgrp
    2b70:	02202021 	move	a0,s1
    2b74:	8f830088 	lw	v1,136(gp)
    2b78:	00000000 	nop
    2b7c:	14430003 	bne	v0,v1,2b8c <tiocspgrp+0xa4>
    2b80:	2404ffff 	li	a0,-1
    2b84:	ae11010c 	sw	s1,268(s0)
    2b88:	00002021 	move	a0,zero
    2b8c:	00801021 	move	v0,a0
    2b90:	8fbf0018 	lw	ra,24(sp)
    2b94:	8fb10014 	lw	s1,20(sp)
    2b98:	8fb00010 	lw	s0,16(sp)
    2b9c:	03e00008 	jr	ra
    2ba0:	27bd0020 	addiu	sp,sp,32

00002ba4 <tiocgsid>:
    2ba4:	14850005 	bne	a0,a1,2bbc <tiocgsid+0x18>
    2ba8:	27bdfff0 	addiu	sp,sp,-16
    2bac:	8f820258 	lw	v0,600(gp)
    2bb0:	00000000 	nop
    2bb4:	14450009 	bne	v0,a1,2bdc <tiocgsid+0x38>
    2bb8:	2403ffe7 	li	v1,-25
    2bbc:	8ca20110 	lw	v0,272(a1)
    2bc0:	00000000 	nop
    2bc4:	18400005 	blez	v0,2bdc <tiocgsid+0x38>
    2bc8:	2403ffe7 	li	v1,-25
    2bcc:	8ca20110 	lw	v0,272(a1)
    2bd0:	00000000 	nop
    2bd4:	acc20000 	sw	v0,0(a2)
    2bd8:	00001821 	move	v1,zero
    2bdc:	00601021 	move	v0,v1
    2be0:	03e00008 	jr	ra
    2be4:	27bd0010 	addiu	sp,sp,16

00002be8 <tiocttygstruct>:
    2be8:	27bdfff8 	addiu	sp,sp,-8
    2bec:	afbf0000 	sw	ra,0(sp)
    2bf0:	00801021 	move	v0,a0
    2bf4:	00a02021 	move	a0,a1
    2bf8:	00402821 	move	a1,v0
    2bfc:	0c000000 	jal	0 <alloc_tty_struct>
			2bfc: R_MIPS_26	__copy_user
    2c00:	24060c38 	li	a2,3128
    2c04:	14c00002 	bnez	a2,2c10 <tiocttygstruct+0x28>
    2c08:	2402fff2 	li	v0,-14
    2c0c:	00001021 	move	v0,zero
    2c10:	8fbf0000 	lw	ra,0(sp)
    2c14:	00000000 	nop
    2c18:	03e00008 	jr	ra
    2c1c:	27bd0008 	addiu	sp,sp,8

00002c20 <tiocsetd>:
    2c20:	27bdffe8 	addiu	sp,sp,-24
    2c24:	afbf0010 	sw	ra,16(sp)
    2c28:	8ca50000 	lw	a1,0(a1)
    2c2c:	00001021 	move	v0,zero
    2c30:	14400004 	bnez	v0,2c44 <tiocsetd+0x24>
    2c34:	2403fff2 	li	v1,-14
    2c38:	0c0000a9 	jal	2a4 <tty_set_ldisc>
			2c38: R_MIPS_26	.text
    2c3c:	00000000 	nop
    2c40:	00401821 	move	v1,v0
    2c44:	00601021 	move	v0,v1
    2c48:	8fbf0010 	lw	ra,16(sp)
    2c4c:	00000000 	nop
    2c50:	03e00008 	jr	ra
    2c54:	27bd0018 	addiu	sp,sp,24

00002c58 <send_break>:
    2c58:	27bdffe0 	addiu	sp,sp,-32
    2c5c:	afbf0018 	sw	ra,24(sp)
    2c60:	afb10014 	sw	s1,20(sp)
    2c64:	afb00010 	sw	s0,16(sp)
    2c68:	00808021 	move	s0,a0
    2c6c:	00a08821 	move	s1,a1
    2c70:	24020001 	li	v0,1
    2c74:	af820000 	sw	v0,0(gp)
    2c78:	8c8200a0 	lw	v0,160(a0)
    2c7c:	00000000 	nop
    2c80:	0040f809 	jalr	v0
    2c84:	2405ffff 	li	a1,-1
    2c88:	8f820008 	lw	v0,8(gp)
    2c8c:	00000000 	nop
    2c90:	14400003 	bnez	v0,2ca0 <send_break+0x48>
    2c94:	00000000 	nop
    2c98:	0c000000 	jal	0 <alloc_tty_struct>
			2c98: R_MIPS_26	schedule_timeout
    2c9c:	02202021 	move	a0,s1
    2ca0:	8e0200a0 	lw	v0,160(s0)
    2ca4:	02002021 	move	a0,s0
    2ca8:	0040f809 	jalr	v0
    2cac:	00002821 	move	a1,zero
    2cb0:	8f820008 	lw	v0,8(gp)
    2cb4:	00000000 	nop
    2cb8:	14400002 	bnez	v0,2cc4 <send_break+0x6c>
    2cbc:	2403fffc 	li	v1,-4
    2cc0:	00001821 	move	v1,zero
    2cc4:	00601021 	move	v0,v1
    2cc8:	8fbf0018 	lw	ra,24(sp)
    2ccc:	8fb10014 	lw	s1,20(sp)
    2cd0:	8fb00010 	lw	s0,16(sp)
    2cd4:	03e00008 	jr	ra
    2cd8:	27bd0020 	addiu	sp,sp,32

00002cdc <tty_ioctl>:
    2cdc:	27bdffd0 	addiu	sp,sp,-48
    2ce0:	afbf0028 	sw	ra,40(sp)
    2ce4:	afb50024 	sw	s5,36(sp)
    2ce8:	afb40020 	sw	s4,32(sp)
    2cec:	afb3001c 	sw	s3,28(sp)
    2cf0:	afb20018 	sw	s2,24(sp)
    2cf4:	afb10014 	sw	s1,20(sp)
    2cf8:	afb00010 	sw	s0,16(sp)
    2cfc:	0080a821 	move	s5,a0
    2d00:	00a0a021 	move	s4,a1
    2d04:	00c08821 	move	s1,a2
    2d08:	8cb0005c 	lw	s0,92(a1)
    2d0c:	94840040 	lhu	a0,64(a0)
    2d10:	3c120000 	lui	s2,0x0
			2d10: R_MIPS_HI16	.rodata
    2d14:	26520480 	addiu	s2,s2,1152
			2d14: R_MIPS_LO16	.rodata
    2d18:	16000007 	bnez	s0,2d38 <tty_ioctl+0x5c>
    2d1c:	00e09821 	move	s3,a3
    2d20:	0c000000 	jal	0 <alloc_tty_struct>
			2d20: R_MIPS_26	kdevname
    2d24:	00000000 	nop
    2d28:	3c040000 	lui	a0,0x0
			2d28: R_MIPS_HI16	.rodata
    2d2c:	2484011c 	addiu	a0,a0,284
			2d2c: R_MIPS_LO16	.rodata
    2d30:	08000b57 	j	2d5c <tty_ioctl+0x80>
			2d30: R_MIPS_26	.text
    2d34:	00402821 	move	a1,v0
    2d38:	8e030000 	lw	v1,0(s0)
    2d3c:	24025401 	li	v0,21505
    2d40:	1062000a 	beq	v1,v0,2d6c <tty_ioctl+0x90>
    2d44:	00000000 	nop
    2d48:	0c000000 	jal	0 <alloc_tty_struct>
			2d48: R_MIPS_26	kdevname
    2d4c:	00000000 	nop
    2d50:	3c040000 	lui	a0,0x0
			2d50: R_MIPS_HI16	.rodata
    2d54:	248400e4 	addiu	a0,a0,228
			2d54: R_MIPS_LO16	.rodata
    2d58:	00402821 	move	a1,v0
    2d5c:	0c000000 	jal	0 <alloc_tty_struct>
			2d5c: R_MIPS_26	printk
    2d60:	02403021 	move	a2,s2
    2d64:	08000b5c 	j	2d70 <tty_ioctl+0x94>
			2d64: R_MIPS_26	.text
    2d68:	24020001 	li	v0,1
    2d6c:	00001021 	move	v0,zero
    2d70:	14400147 	bnez	v0,3290 <tty_ioctl+0x5b4>
    2d74:	2404ffea 	li	a0,-22
    2d78:	8603001a 	lh	v1,26(s0)
    2d7c:	24020004 	li	v0,4
    2d80:	14620006 	bne	v1,v0,2d9c <tty_ioctl+0xc0>
    2d84:	02009021 	move	s2,s0
    2d88:	8603001c 	lh	v1,28(s0)
    2d8c:	24020001 	li	v0,1
    2d90:	14620002 	bne	v1,v0,2d9c <tty_ioctl+0xc0>
    2d94:	00000000 	nop
    2d98:	8e12012c 	lw	s2,300(s0)
    2d9c:	8e0200a0 	lw	v0,160(s0)
    2da0:	00000000 	nop
    2da4:	14400025 	bnez	v0,2e3c <tty_ioctl+0x160>
    2da8:	2e225429 	sltiu	v0,s1,21545
    2dac:	10400004 	beqz	v0,2dc0 <tty_ioctl+0xe4>
    2db0:	24025486 	li	v0,21638
    2db4:	2e225427 	sltiu	v0,s1,21543
    2db8:	10400005 	beqz	v0,2dd0 <tty_ioctl+0xf4>
    2dbc:	24025405 	li	v0,21509
    2dc0:	1222000d 	beq	s1,v0,2df8 <tty_ioctl+0x11c>
    2dc4:	2e225429 	sltiu	v0,s1,21545
    2dc8:	08000b8f 	j	2e3c <tty_ioctl+0x160>
			2dc8: R_MIPS_26	.text
    2dcc:	00000000 	nop
    2dd0:	8e020084 	lw	v0,132(s0)
    2dd4:	00000000 	nop
    2dd8:	1040012c 	beqz	v0,328c <tty_ioctl+0x5b0>
    2ddc:	02002021 	move	a0,s0
    2de0:	02802821 	move	a1,s4
    2de4:	02203021 	move	a2,s1
    2de8:	0040f809 	jalr	v0
    2dec:	02603821 	move	a3,s3
    2df0:	08000ca4 	j	3290 <tty_ioctl+0x5b4>
			2df0: R_MIPS_26	.text
    2df4:	00402021 	move	a0,v0
    2df8:	8e020084 	lw	v0,132(s0)
    2dfc:	00000000 	nop
    2e00:	10400123 	beqz	v0,3290 <tty_ioctl+0x5b4>
    2e04:	00002021 	move	a0,zero
    2e08:	8e020084 	lw	v0,132(s0)
    2e0c:	02002021 	move	a0,s0
    2e10:	02802821 	move	a1,s4
    2e14:	02203021 	move	a2,s1
    2e18:	0040f809 	jalr	v0
    2e1c:	02603821 	move	a3,s3
    2e20:	00401821 	move	v1,v0
    2e24:	2402fdfd 	li	v0,-515
    2e28:	14620002 	bne	v1,v0,2e34 <tty_ioctl+0x158>
    2e2c:	00000000 	nop
    2e30:	00001821 	move	v1,zero
    2e34:	08000ca4 	j	3290 <tty_ioctl+0x5b4>
			2e34: R_MIPS_26	.text
    2e38:	00602021 	move	a0,v1
    2e3c:	10400006 	beqz	v0,2e58 <tty_ioctl+0x17c>
    2e40:	24025486 	li	v0,21638
    2e44:	2e225427 	sltiu	v0,s1,21543
    2e48:	10400007 	beqz	v0,2e68 <tty_ioctl+0x18c>
    2e4c:	24025405 	li	v0,21509
    2e50:	08000b98 	j	2e60 <tty_ioctl+0x184>
			2e50: R_MIPS_26	.text
    2e54:	00000000 	nop
    2e58:	12220003 	beq	s1,v0,2e68 <tty_ioctl+0x18c>
    2e5c:	24027401 	li	v0,29697
    2e60:	16220010 	bne	s1,v0,2ea4 <tty_ioctl+0x1c8>
    2e64:	24027400 	li	v0,29696
    2e68:	0c000000 	jal	0 <alloc_tty_struct>
			2e68: R_MIPS_26	tty_check_change
    2e6c:	02002021 	move	a0,s0
    2e70:	14400107 	bnez	v0,3290 <tty_ioctl+0x5b4>
    2e74:	00402021 	move	a0,v0
    2e78:	24025428 	li	v0,21544
    2e7c:	12220009 	beq	s1,v0,2ea4 <tty_ioctl+0x1c8>
    2e80:	24027400 	li	v0,29696
    2e84:	02002021 	move	a0,s0
    2e88:	0c000000 	jal	0 <alloc_tty_struct>
			2e88: R_MIPS_26	tty_wait_until_sent
    2e8c:	00002821 	move	a1,zero
    2e90:	8f820008 	lw	v0,8(gp)
    2e94:	00000000 	nop
    2e98:	144000fd 	bnez	v0,3290 <tty_ioctl+0x5b4>
    2e9c:	2404fffc 	li	a0,-4
    2ea0:	24027400 	li	v0,29696
    2ea4:	122200b8 	beq	s1,v0,3188 <tty_ioctl+0x4ac>
    2ea8:	00000000 	nop
    2eac:	2e227401 	sltiu	v0,s1,29697
    2eb0:	10400026 	beqz	v0,2f4c <tty_ioctl+0x270>
    2eb4:	3c024004 	lui	v0,0x4004
    2eb8:	24025472 	li	v0,21618
    2ebc:	1222004b 	beq	s1,v0,2fec <tty_ioctl+0x310>
    2ec0:	2e225473 	sltiu	v0,s1,21619
    2ec4:	10400012 	beqz	v0,2f10 <tty_ioctl+0x234>
    2ec8:	24025486 	li	v0,21638
    2ecc:	24025427 	li	v0,21543
    2ed0:	122200bc 	beq	s1,v0,31c4 <tty_ioctl+0x4e8>
    2ed4:	00000000 	nop
    2ed8:	2e225428 	sltiu	v0,s1,21544
    2edc:	10400006 	beqz	v0,2ef8 <tty_ioctl+0x21c>
    2ee0:	24025428 	li	v0,21544
    2ee4:	24025405 	li	v0,21509
    2ee8:	122200c1 	beq	s1,v0,31f0 <tty_ioctl+0x514>
    2eec:	00000000 	nop
    2ef0:	08000c8d 	j	3234 <tty_ioctl+0x558>
			2ef0: R_MIPS_26	.text
    2ef4:	00000000 	nop
    2ef8:	122200b6 	beq	s1,v0,31d4 <tty_ioctl+0x4f8>
    2efc:	24025471 	li	v0,21617
    2f00:	12220080 	beq	s1,v0,3104 <tty_ioctl+0x428>
    2f04:	00000000 	nop
    2f08:	08000c8d 	j	3234 <tty_ioctl+0x558>
			2f08: R_MIPS_26	.text
    2f0c:	00000000 	nop
    2f10:	122200bd 	beq	s1,v0,3208 <tty_ioctl+0x52c>
    2f14:	2e225487 	sltiu	v0,s1,21639
    2f18:	10400006 	beqz	v0,2f34 <tty_ioctl+0x258>
    2f1c:	24025487 	li	v0,21639
    2f20:	24025480 	li	v0,21632
    2f24:	12220083 	beq	s1,v0,3134 <tty_ioctl+0x458>
    2f28:	02002021 	move	a0,s0
    2f2c:	08000c8d 	j	3234 <tty_ioctl+0x558>
			2f2c: R_MIPS_26	.text
    2f30:	00000000 	nop
    2f34:	1222009e 	beq	s1,v0,31b0 <tty_ioctl+0x4d4>
    2f38:	2402667e 	li	v0,26238
    2f3c:	1222003f 	beq	s1,v0,303c <tty_ioctl+0x360>
    2f40:	02802021 	move	a0,s4
    2f44:	08000c8d 	j	3234 <tty_ioctl+0x558>
			2f44: R_MIPS_26	.text
    2f48:	00000000 	nop
    2f4c:	34427477 	ori	v0,v0,0x7477
    2f50:	1222007c 	beq	s1,v0,3144 <tty_ioctl+0x468>
    2f54:	0051102b 	sltu	v0,v0,s1
    2f58:	14400011 	bnez	v0,2fa0 <tty_ioctl+0x2c4>
    2f5c:	3c028004 	lui	v0,0x8004
    2f60:	2402740d 	li	v0,29709
    2f64:	12220039 	beq	s1,v0,304c <tty_ioctl+0x370>
    2f68:	2e22740e 	sltiu	v0,s1,29710
    2f6c:	10400006 	beqz	v0,2f88 <tty_ioctl+0x2ac>
    2f70:	2402740e 	li	v0,29710
    2f74:	24027401 	li	v0,29697
    2f78:	12220089 	beq	s1,v0,31a0 <tty_ioctl+0x4c4>
    2f7c:	02002021 	move	a0,s0
    2f80:	08000c8d 	j	3234 <tty_ioctl+0x558>
			2f80: R_MIPS_26	.text
    2f84:	00000000 	nop
    2f88:	12220047 	beq	s1,v0,30a8 <tty_ioctl+0x3cc>
    2f8c:	24027416 	li	v0,29718
    2f90:	12220078 	beq	s1,v0,3174 <tty_ioctl+0x498>
    2f94:	02002021 	move	a0,s0
    2f98:	08000c8d 	j	3234 <tty_ioctl+0x558>
			2f98: R_MIPS_26	.text
    2f9c:	00000000 	nop
    2fa0:	34427476 	ori	v0,v0,0x7476
    2fa4:	1222006d 	beq	s1,v0,315c <tty_ioctl+0x480>
    2fa8:	0051102b 	sltu	v0,v0,s1
    2fac:	14400007 	bnez	v0,2fcc <tty_ioctl+0x2f0>
    2fb0:	3c028004 	lui	v0,0x8004
    2fb4:	3c024008 	lui	v0,0x4008
    2fb8:	34427468 	ori	v0,v0,0x7468
    2fbc:	12220010 	beq	s1,v0,3000 <tty_ioctl+0x324>
    2fc0:	02002021 	move	a0,s0
    2fc4:	08000c8d 	j	3234 <tty_ioctl+0x558>
			2fc4: R_MIPS_26	.text
    2fc8:	00000000 	nop
    2fcc:	34427478 	ori	v0,v0,0x7478
    2fd0:	12220014 	beq	s1,v0,3024 <tty_ioctl+0x348>
    2fd4:	3c028008 	lui	v0,0x8008
    2fd8:	34427467 	ori	v0,v0,0x7467
    2fdc:	1222000c 	beq	s1,v0,3010 <tty_ioctl+0x334>
    2fe0:	02002021 	move	a0,s0
    2fe4:	08000c8d 	j	3234 <tty_ioctl+0x558>
			2fe4: R_MIPS_26	.text
    2fe8:	00000000 	nop
    2fec:	02002021 	move	a0,s0
    2ff0:	0c0009c4 	jal	2710 <tiocsti>
			2ff0: R_MIPS_26	.text
    2ff4:	02602821 	move	a1,s3
    2ff8:	08000ca4 	j	3290 <tty_ioctl+0x5b4>
			2ff8: R_MIPS_26	.text
    2ffc:	00402021 	move	a0,v0
    3000:	0c0009eb 	jal	27ac <tiocgwinsz>
			3000: R_MIPS_26	.text
    3004:	02602821 	move	a1,s3
    3008:	08000ca4 	j	3290 <tty_ioctl+0x5b4>
			3008: R_MIPS_26	.text
    300c:	00402021 	move	a0,v0
    3010:	02402821 	move	a1,s2
    3014:	0c0009fa 	jal	27e8 <tiocswinsz>
			3014: R_MIPS_26	.text
    3018:	02603021 	move	a2,s3
    301c:	08000ca4 	j	3290 <tty_ioctl+0x5b4>
			301c: R_MIPS_26	.text
    3020:	00402021 	move	a0,v0
    3024:	02a02021 	move	a0,s5
    3028:	02002821 	move	a1,s0
    302c:	0c000a2b 	jal	28ac <tioccons>
			302c: R_MIPS_26	.text
    3030:	02403021 	move	a2,s2
    3034:	08000ca4 	j	3290 <tty_ioctl+0x5b4>
			3034: R_MIPS_26	.text
    3038:	00402021 	move	a0,v0
    303c:	0c000a52 	jal	2948 <fionbio>
			303c: R_MIPS_26	.text
    3040:	02602821 	move	a1,s3
    3044:	08000ca4 	j	3290 <tty_ioctl+0x5b4>
			3044: R_MIPS_26	.text
    3048:	00402021 	move	a0,v0
    304c:	40036000 	mfc0	v1,$12
    3050:	00000000 	nop
    3054:	34610001 	ori	at,v1,0x1
    3058:	38210001 	xori	at,at,0x1
    305c:	40816000 	mtc0	at,$12
    3060:	00000040 	sll	zero,zero,0x1
    3064:	00000040 	sll	zero,zero,0x1
    3068:	00000040 	sll	zero,zero,0x1
    306c:	8e020118 	lw	v0,280(s0)
    3070:	00000000 	nop
    3074:	34420008 	ori	v0,v0,0x8
    3078:	ae020118 	sw	v0,280(s0)
    307c:	40016000 	mfc0	at,$12
    3080:	30630001 	andi	v1,v1,0x1
    3084:	34210001 	ori	at,at,0x1
    3088:	38210001 	xori	at,at,0x1
    308c:	00611825 	or	v1,v1,at
    3090:	40836000 	mtc0	v1,$12
    3094:	00000040 	sll	zero,zero,0x1
    3098:	00000040 	sll	zero,zero,0x1
    309c:	00000040 	sll	zero,zero,0x1
    30a0:	08000ca4 	j	3290 <tty_ioctl+0x5b4>
			30a0: R_MIPS_26	.text
    30a4:	00002021 	move	a0,zero
    30a8:	40026000 	mfc0	v0,$12
    30ac:	00000000 	nop
    30b0:	34410001 	ori	at,v0,0x1
    30b4:	38210001 	xori	at,at,0x1
    30b8:	40816000 	mtc0	at,$12
    30bc:	00000040 	sll	zero,zero,0x1
    30c0:	00000040 	sll	zero,zero,0x1
    30c4:	00000040 	sll	zero,zero,0x1
    30c8:	8e030118 	lw	v1,280(s0)
    30cc:	2404fff7 	li	a0,-9
    30d0:	00641824 	and	v1,v1,a0
    30d4:	ae030118 	sw	v1,280(s0)
    30d8:	40016000 	mfc0	at,$12
    30dc:	30420001 	andi	v0,v0,0x1
    30e0:	34210001 	ori	at,at,0x1
    30e4:	38210001 	xori	at,at,0x1
    30e8:	00411025 	or	v0,v0,at
    30ec:	40826000 	mtc0	v0,$12
    30f0:	00000040 	sll	zero,zero,0x1
    30f4:	00000040 	sll	zero,zero,0x1
    30f8:	00000040 	sll	zero,zero,0x1
    30fc:	08000ca4 	j	3290 <tty_ioctl+0x5b4>
			30fc: R_MIPS_26	.text
    3100:	00002021 	move	a0,zero
    3104:	8f820258 	lw	v0,600(gp)
    3108:	00000000 	nop
    310c:	14500060 	bne	v0,s0,3290 <tty_ioctl+0x5b4>
    3110:	2404ffe7 	li	a0,-25
    3114:	8f820090 	lw	v0,144(gp)
    3118:	00000000 	nop
    311c:	10400003 	beqz	v0,312c <tty_ioctl+0x450>
    3120:	00000000 	nop
    3124:	0c000000 	jal	0 <alloc_tty_struct>
			3124: R_MIPS_26	disassociate_ctty
    3128:	00002021 	move	a0,zero
    312c:	08000c80 	j	3200 <tty_ioctl+0x524>
			312c: R_MIPS_26	.text
    3130:	af800258 	sw	zero,600(gp)
    3134:	0c000a64 	jal	2990 <tiocsctty>
			3134: R_MIPS_26	.text
    3138:	02602821 	move	a1,s3
    313c:	08000ca4 	j	3290 <tty_ioctl+0x5b4>
			313c: R_MIPS_26	.text
    3140:	00402021 	move	a0,v0
    3144:	02002021 	move	a0,s0
    3148:	02402821 	move	a1,s2
    314c:	0c000aad 	jal	2ab4 <tiocgpgrp>
			314c: R_MIPS_26	.text
    3150:	02603021 	move	a2,s3
    3154:	08000ca4 	j	3290 <tty_ioctl+0x5b4>
			3154: R_MIPS_26	.text
    3158:	00402021 	move	a0,v0
    315c:	02002021 	move	a0,s0
    3160:	02402821 	move	a1,s2
    3164:	0c000aba 	jal	2ae8 <tiocspgrp>
			3164: R_MIPS_26	.text
    3168:	02603021 	move	a2,s3
    316c:	08000ca4 	j	3290 <tty_ioctl+0x5b4>
			316c: R_MIPS_26	.text
    3170:	00402021 	move	a0,v0
    3174:	02402821 	move	a1,s2
    3178:	0c000ae9 	jal	2ba4 <tiocgsid>
			3178: R_MIPS_26	.text
    317c:	02603021 	move	a2,s3
    3180:	08000ca4 	j	3290 <tty_ioctl+0x5b4>
			3180: R_MIPS_26	.text
    3184:	00402021 	move	a0,v0
    3188:	8e0200cc 	lw	v0,204(s0)
    318c:	00000000 	nop
    3190:	ae620000 	sw	v0,0(s3)
    3194:	00002021 	move	a0,zero
    3198:	08000ca5 	j	3294 <tty_ioctl+0x5b8>
			3198: R_MIPS_26	.text
    319c:	00801021 	move	v0,a0
    31a0:	0c000b08 	jal	2c20 <tiocsetd>
			31a0: R_MIPS_26	.text
    31a4:	02602821 	move	a1,s3
    31a8:	08000ca4 	j	3290 <tty_ioctl+0x5b4>
			31a8: R_MIPS_26	.text
    31ac:	00402021 	move	a0,v0
    31b0:	02002021 	move	a0,s0
    31b4:	0c000afa 	jal	2be8 <tiocttygstruct>
			31b4: R_MIPS_26	.text
    31b8:	02602821 	move	a1,s3
    31bc:	08000ca4 	j	3290 <tty_ioctl+0x5b4>
			31bc: R_MIPS_26	.text
    31c0:	00402021 	move	a0,v0
    31c4:	8e0200a0 	lw	v0,160(s0)
    31c8:	02002021 	move	a0,s0
    31cc:	08000c78 	j	31e0 <tty_ioctl+0x504>
			31cc: R_MIPS_26	.text
    31d0:	2405ffff 	li	a1,-1
    31d4:	8e0200a0 	lw	v0,160(s0)
    31d8:	02002021 	move	a0,s0
    31dc:	00002821 	move	a1,zero
    31e0:	0040f809 	jalr	v0
    31e4:	00000000 	nop
    31e8:	08000ca4 	j	3290 <tty_ioctl+0x5b4>
			31e8: R_MIPS_26	.text
    31ec:	00002021 	move	a0,zero
    31f0:	16600003 	bnez	s3,3200 <tty_ioctl+0x524>
    31f4:	24050019 	li	a1,25
    31f8:	08000c89 	j	3224 <tty_ioctl+0x548>
			31f8: R_MIPS_26	.text
    31fc:	02002021 	move	a0,s0
    3200:	08000ca4 	j	3290 <tty_ioctl+0x5b4>
			3200: R_MIPS_26	.text
    3204:	00002021 	move	a0,zero
    3208:	12600004 	beqz	s3,321c <tty_ioctl+0x540>
    320c:	00131080 	sll	v0,s3,0x2
    3210:	00531021 	addu	v0,v0,s3
    3214:	08000c88 	j	3220 <tty_ioctl+0x544>
			3214: R_MIPS_26	.text
    3218:	00022840 	sll	a1,v0,0x1
    321c:	24050019 	li	a1,25
    3220:	02002021 	move	a0,s0
    3224:	0c000b16 	jal	2c58 <send_break>
			3224: R_MIPS_26	.text
    3228:	00000000 	nop
    322c:	08000ca4 	j	3290 <tty_ioctl+0x5b4>
			322c: R_MIPS_26	.text
    3230:	00402021 	move	a0,v0
    3234:	8e020084 	lw	v0,132(s0)
    3238:	00000000 	nop
    323c:	10400008 	beqz	v0,3260 <tty_ioctl+0x584>
    3240:	02802821 	move	a1,s4
    3244:	02002021 	move	a0,s0
    3248:	02203021 	move	a2,s1
    324c:	0040f809 	jalr	v0
    3250:	02603821 	move	a3,s3
    3254:	2403fdfd 	li	v1,-515
    3258:	1443000d 	bne	v0,v1,3290 <tty_ioctl+0x5b4>
    325c:	00402021 	move	a0,v0
    3260:	8e0200ec 	lw	v0,236(s0)
    3264:	00000000 	nop
    3268:	10400008 	beqz	v0,328c <tty_ioctl+0x5b0>
    326c:	02002021 	move	a0,s0
    3270:	02802821 	move	a1,s4
    3274:	02203021 	move	a2,s1
    3278:	0040f809 	jalr	v0
    327c:	02603821 	move	a3,s3
    3280:	2403fdfd 	li	v1,-515
    3284:	14430002 	bne	v0,v1,3290 <tty_ioctl+0x5b4>
    3288:	00402021 	move	a0,v0
    328c:	2404ffea 	li	a0,-22
    3290:	00801021 	move	v0,a0
    3294:	8fbf0028 	lw	ra,40(sp)
    3298:	8fb50024 	lw	s5,36(sp)
    329c:	8fb40020 	lw	s4,32(sp)
    32a0:	8fb3001c 	lw	s3,28(sp)
    32a4:	8fb20018 	lw	s2,24(sp)
    32a8:	8fb10014 	lw	s1,20(sp)
    32ac:	8fb00010 	lw	s0,16(sp)
    32b0:	03e00008 	jr	ra
    32b4:	27bd0030 	addiu	sp,sp,48

000032b8 <__do_SAK>:
    32b8:	27bdffd8 	addiu	sp,sp,-40
    32bc:	afbf0020 	sw	ra,32(sp)
    32c0:	afb3001c 	sw	s3,28(sp)
    32c4:	afb20018 	sw	s2,24(sp)
    32c8:	afb10014 	sw	s1,20(sp)
    32cc:	afb00010 	sw	s0,16(sp)
    32d0:	1080004e 	beqz	a0,340c <__do_SAK+0x154>
    32d4:	00808821 	move	s1,a0
    32d8:	8c920110 	lw	s2,272(a0)
    32dc:	8c8200dc 	lw	v0,220(a0)
    32e0:	00000000 	nop
    32e4:	10400003 	beqz	v0,32f4 <__do_SAK+0x3c>
    32e8:	00000000 	nop
    32ec:	0040f809 	jalr	v0
    32f0:	00000000 	nop
    32f4:	8e2200a4 	lw	v0,164(s1)
    32f8:	00000000 	nop
    32fc:	10400003 	beqz	v0,330c <__do_SAK+0x54>
    3300:	00000000 	nop
    3304:	0040f809 	jalr	v0
    3308:	02202021 	move	a0,s1
    330c:	3c100000 	lui	s0,0x0
			330c: R_MIPS_HI16	init_task_union
    3310:	8e100048 	lw	s0,72(s0)
			3310: R_MIPS_LO16	init_task_union
    3314:	3c020000 	lui	v0,0x0
			3314: R_MIPS_HI16	init_task_union
    3318:	24420000 	addiu	v0,v0,0
			3318: R_MIPS_LO16	init_task_union
    331c:	1202003b 	beq	s0,v0,340c <__do_SAK+0x154>
    3320:	00409821 	move	s3,v0
    3324:	8e020258 	lw	v0,600(s0)
    3328:	00000000 	nop
    332c:	10510007 	beq	v0,s1,334c <__do_SAK+0x94>
    3330:	00000000 	nop
    3334:	1a40000b 	blez	s2,3364 <__do_SAK+0xac>
    3338:	00000000 	nop
    333c:	8e020088 	lw	v0,136(s0)
    3340:	00000000 	nop
    3344:	14520007 	bne	v0,s2,3364 <__do_SAK+0xac>
    3348:	00000000 	nop
    334c:	24040009 	li	a0,9
    3350:	02002821 	move	a1,s0
    3354:	0c000000 	jal	0 <alloc_tty_struct>
			3354: R_MIPS_26	send_sig
    3358:	24060001 	li	a2,1
    335c:	08000cff 	j	33fc <__do_SAK+0x144>
			335c: R_MIPS_26	.text
    3360:	00000000 	nop
    3364:	8e0203c4 	lw	v0,964(s0)
    3368:	00000000 	nop
    336c:	10400023 	beqz	v0,33fc <__do_SAK+0x144>
    3370:	00401821 	move	v1,v0
    3374:	8c420004 	lw	v0,4(v0)
    3378:	00000000 	nop
    337c:	1840001f 	blez	v0,33fc <__do_SAK+0x144>
    3380:	00002821 	move	a1,zero
    3384:	3c060000 	lui	a2,0x0
			3384: R_MIPS_HI16	.data
    3388:	24c60000 	addiu	a2,a2,0
			3388: R_MIPS_LO16	.data
    338c:	8c620004 	lw	v0,4(v1)
    3390:	00000000 	nop
    3394:	00a2102b 	sltu	v0,a1,v0
    3398:	10400006 	beqz	v0,33b4 <__do_SAK+0xfc>
    339c:	00002021 	move	a0,zero
    33a0:	8c630010 	lw	v1,16(v1)
    33a4:	00051080 	sll	v0,a1,0x2
    33a8:	00431021 	addu	v0,v0,v1
    33ac:	8c440000 	lw	a0,0(v0)
    33b0:	00000000 	nop
    33b4:	10800009 	beqz	a0,33dc <__do_SAK+0x124>
    33b8:	00000000 	nop
    33bc:	8c820010 	lw	v0,16(a0)
    33c0:	00000000 	nop
    33c4:	14460005 	bne	v0,a2,33dc <__do_SAK+0x124>
    33c8:	00000000 	nop
    33cc:	8c82005c 	lw	v0,92(a0)
    33d0:	00000000 	nop
    33d4:	1051ffde 	beq	v0,s1,3350 <__do_SAK+0x98>
    33d8:	24040009 	li	a0,9
    33dc:	24a50001 	addiu	a1,a1,1
    33e0:	8e0303c4 	lw	v1,964(s0)
    33e4:	00000000 	nop
    33e8:	8c620004 	lw	v0,4(v1)
    33ec:	00000000 	nop
    33f0:	00a2102a 	slt	v0,a1,v0
    33f4:	1440ffe5 	bnez	v0,338c <__do_SAK+0xd4>
    33f8:	00000000 	nop
    33fc:	8e100048 	lw	s0,72(s0)
    3400:	00000000 	nop
    3404:	1613ffc7 	bne	s0,s3,3324 <__do_SAK+0x6c>
    3408:	00000000 	nop
    340c:	8fbf0020 	lw	ra,32(sp)
    3410:	8fb3001c 	lw	s3,28(sp)
    3414:	8fb20018 	lw	s2,24(sp)
    3418:	8fb10014 	lw	s1,20(sp)
    341c:	8fb00010 	lw	s0,16(sp)
    3420:	03e00008 	jr	ra
    3424:	27bd0028 	addiu	sp,sp,40

00003428 <do_SAK>:
    3428:	27bdffe8 	addiu	sp,sp,-24
    342c:	10800007 	beqz	a0,344c <do_SAK+0x24>
    3430:	afbf0010 	sw	ra,16(sp)
    3434:	3c020000 	lui	v0,0x0
			3434: R_MIPS_HI16	.text
    3438:	244232b8 	addiu	v0,v0,12984
			3438: R_MIPS_LO16	.text
    343c:	ac820c2c 	sw	v0,3116(a0)
    3440:	ac840c30 	sw	a0,3120(a0)
    3444:	0c000000 	jal	0 <alloc_tty_struct>
			3444: R_MIPS_26	schedule_task
    3448:	24840c20 	addiu	a0,a0,3104
    344c:	8fbf0010 	lw	ra,16(sp)
    3450:	00000000 	nop
    3454:	03e00008 	jr	ra
    3458:	27bd0018 	addiu	sp,sp,24

0000345c <flush_to_ldisc>:
    345c:	27bdffe8 	addiu	sp,sp,-24
    3460:	afbf0010 	sw	ra,16(sp)
    3464:	8c820118 	lw	v0,280(a0)
    3468:	00000000 	nop
    346c:	00021202 	srl	v0,v0,0x8
    3470:	30420001 	andi	v0,v0,0x1
    3474:	10400036 	beqz	v0,3550 <flush_to_ldisc+0xf4>
    3478:	00804021 	move	t0,a0
    347c:	24850138 	addiu	a1,a0,312
    3480:	3c060000 	lui	a2,0x0
			3480: R_MIPS_HI16	tq_timer
    3484:	24c60000 	addiu	a2,a2,0
			3484: R_MIPS_LO16	tq_timer
    3488:	40046000 	mfc0	a0,$12
    348c:	00000000 	nop
    3490:	34810001 	ori	at,a0,0x1
    3494:	38210001 	xori	at,at,0x1
    3498:	40816000 	mtc0	at,$12
    349c:	00000040 	sll	zero,zero,0x1
    34a0:	00000040 	sll	zero,zero,0x1
    34a4:	00000040 	sll	zero,zero,0x1
    34a8:	8d030140 	lw	v1,320(t0)
    34ac:	00000000 	nop
    34b0:	30630001 	andi	v1,v1,0x1
    34b4:	8d020140 	lw	v0,320(t0)
    34b8:	00000000 	nop
    34bc:	34420001 	ori	v0,v0,0x1
    34c0:	ad020140 	sw	v0,320(t0)
    34c4:	40016000 	mfc0	at,$12
    34c8:	30840001 	andi	a0,a0,0x1
    34cc:	34210001 	ori	at,at,0x1
    34d0:	38210001 	xori	at,at,0x1
    34d4:	00812025 	or	a0,a0,at
    34d8:	40846000 	mtc0	a0,$12
    34dc:	00000040 	sll	zero,zero,0x1
    34e0:	00000040 	sll	zero,zero,0x1
    34e4:	00000040 	sll	zero,zero,0x1
    34e8:	1460004c 	bnez	v1,361c <flush_to_ldisc+0x1c0>
    34ec:	00000000 	nop
    34f0:	40026000 	mfc0	v0,$12
    34f4:	00000000 	nop
    34f8:	34410001 	ori	at,v0,0x1
    34fc:	38210001 	xori	at,at,0x1
    3500:	40816000 	mtc0	at,$12
    3504:	00000040 	sll	zero,zero,0x1
    3508:	00000040 	sll	zero,zero,0x1
    350c:	00000040 	sll	zero,zero,0x1
    3510:	8cc30004 	lw	v1,4(a2)
    3514:	acc50004 	sw	a1,4(a2)
    3518:	ad060138 	sw	a2,312(t0)
    351c:	aca30004 	sw	v1,4(a1)
    3520:	ac650000 	sw	a1,0(v1)
    3524:	40016000 	mfc0	at,$12
    3528:	30420001 	andi	v0,v0,0x1
    352c:	34210001 	ori	at,at,0x1
    3530:	38210001 	xori	at,at,0x1
    3534:	00411025 	or	v0,v0,at
    3538:	40826000 	mtc0	v0,$12
    353c:	00000040 	sll	zero,zero,0x1
    3540:	00000040 	sll	zero,zero,0x1
    3544:	00000040 	sll	zero,zero,0x1
    3548:	08000d87 	j	361c <flush_to_ldisc+0x1c0>
			3548: R_MIPS_26	.text
    354c:	00000000 	nop
    3550:	8c82016c 	lw	v0,364(a0)
    3554:	00000000 	nop
    3558:	10400010 	beqz	v0,359c <flush_to_ldisc+0x140>
    355c:	24850370 	addiu	a1,a0,880
    3560:	24860770 	addiu	a2,a0,1904
    3564:	ac80016c 	sw	zero,364(a0)
    3568:	40036000 	mfc0	v1,$12
    356c:	40016000 	mfc0	at,$12
    3570:	00000000 	nop
    3574:	34210001 	ori	at,at,0x1
    3578:	38210001 	xori	at,at,0x1
    357c:	40816000 	mtc0	at,$12
    3580:	00000040 	sll	zero,zero,0x1
    3584:	00000040 	sll	zero,zero,0x1
    3588:	00000040 	sll	zero,zero,0x1
    358c:	24820170 	addiu	v0,a0,368
    3590:	ac820160 	sw	v0,352(a0)
    3594:	08000d77 	j	35dc <flush_to_ldisc+0x180>
			3594: R_MIPS_26	.text
    3598:	24820570 	addiu	v0,a0,1392
    359c:	24850170 	addiu	a1,a0,368
    35a0:	24860570 	addiu	a2,a0,1392
    35a4:	24020001 	li	v0,1
    35a8:	ac82016c 	sw	v0,364(a0)
    35ac:	40036000 	mfc0	v1,$12
    35b0:	40016000 	mfc0	at,$12
    35b4:	00000000 	nop
    35b8:	34210001 	ori	at,at,0x1
    35bc:	38210001 	xori	at,at,0x1
    35c0:	40816000 	mtc0	at,$12
    35c4:	00000040 	sll	zero,zero,0x1
    35c8:	00000040 	sll	zero,zero,0x1
    35cc:	00000040 	sll	zero,zero,0x1
    35d0:	24820370 	addiu	v0,a0,880
    35d4:	ac820160 	sw	v0,352(a0)
    35d8:	24820770 	addiu	v0,a0,1904
    35dc:	ad020164 	sw	v0,356(t0)
    35e0:	8d070168 	lw	a3,360(t0)
    35e4:	ad000168 	sw	zero,360(t0)
    35e8:	40016000 	mfc0	at,$12
    35ec:	30630001 	andi	v1,v1,0x1
    35f0:	34210001 	ori	at,at,0x1
    35f4:	38210001 	xori	at,at,0x1
    35f8:	00611825 	or	v1,v1,at
    35fc:	40836000 	mtc0	v1,$12
    3600:	00000040 	sll	zero,zero,0x1
    3604:	00000040 	sll	zero,zero,0x1
    3608:	00000040 	sll	zero,zero,0x1
    360c:	8d0200f8 	lw	v0,248(t0)
    3610:	00000000 	nop
    3614:	0040f809 	jalr	v0
    3618:	01002021 	move	a0,t0
    361c:	8fbf0010 	lw	ra,16(sp)
    3620:	00000000 	nop
    3624:	03e00008 	jr	ra
    3628:	27bd0018 	addiu	sp,sp,24

0000362c <tty_get_baud_rate>:
    362c:	27bdffe0 	addiu	sp,sp,-32
    3630:	afbf0018 	sw	ra,24(sp)
    3634:	afb10014 	sw	s1,20(sp)
    3638:	afb00010 	sw	s0,16(sp)
    363c:	00808021 	move	s0,a0
    3640:	8c820104 	lw	v0,260(a0)
    3644:	00000000 	nop
    3648:	8c430008 	lw	v1,8(v0)
    364c:	00000000 	nop
    3650:	30621000 	andi	v0,v1,0x1000
    3654:	10400012 	beqz	v0,36a0 <tty_get_baud_rate+0x74>
    3658:	3065100f 	andi	a1,v1,0x100f
    365c:	3065000f 	andi	a1,v1,0xf
    3660:	10a00007 	beqz	a1,3680 <tty_get_baud_rate+0x54>
    3664:	24a2000f 	addiu	v0,a1,15
    3668:	3c030000 	lui	v1,0x0
			3668: R_MIPS_HI16	.data
    366c:	8c63011c 	lw	v1,284(v1)
			366c: R_MIPS_LO16	.data
    3670:	00000000 	nop
    3674:	0043102b 	sltu	v0,v0,v1
    3678:	14400008 	bnez	v0,369c <tty_get_baud_rate+0x70>
    367c:	00000000 	nop
    3680:	8e020104 	lw	v0,260(s0)
    3684:	00000000 	nop
    3688:	8c430008 	lw	v1,8(v0)
    368c:	2404efff 	li	a0,-4097
    3690:	00641824 	and	v1,v1,a0
    3694:	08000da8 	j	36a0 <tty_get_baud_rate+0x74>
			3694: R_MIPS_26	.text
    3698:	ac430008 	sw	v1,8(v0)
    369c:	24a5000f 	addiu	a1,a1,15
    36a0:	2402000f 	li	v0,15
    36a4:	14a20014 	bne	a1,v0,36f8 <tty_get_baud_rate+0xcc>
    36a8:	00051080 	sll	v0,a1,0x2
    36ac:	8e02097c 	lw	v0,2428(s0)
    36b0:	00000000 	nop
    36b4:	10400010 	beqz	v0,36f8 <tty_get_baud_rate+0xcc>
    36b8:	00051080 	sll	v0,a1,0x2
    36bc:	8e020128 	lw	v0,296(s0)
    36c0:	3c110400 	lui	s1,0x400
    36c4:	00511024 	and	v0,v0,s1
    36c8:	14400008 	bnez	v0,36ec <tty_get_baud_rate+0xc0>
    36cc:	00000000 	nop
    36d0:	3c040000 	lui	a0,0x0
			36d0: R_MIPS_HI16	.rodata
    36d4:	0c000000 	jal	0 <alloc_tty_struct>
			36d4: R_MIPS_26	printk
    36d8:	2484048c 	addiu	a0,a0,1164
			36d8: R_MIPS_LO16	.rodata
    36dc:	8e020128 	lw	v0,296(s0)
    36e0:	00000000 	nop
    36e4:	00511025 	or	v0,v0,s1
    36e8:	ae020128 	sw	v0,296(s0)
    36ec:	8e02097c 	lw	v0,2428(s0)
    36f0:	08000dc1 	j	3704 <tty_get_baud_rate+0xd8>
			36f0: R_MIPS_26	.text
    36f4:	00000000 	nop
    36f8:	3c010000 	lui	at,0x0
			36f8: R_MIPS_HI16	.data
    36fc:	00220821 	addu	at,at,v0
    3700:	8c2200a0 	lw	v0,160(at)
			3700: R_MIPS_LO16	.data
    3704:	8fbf0018 	lw	ra,24(sp)
    3708:	8fb10014 	lw	s1,20(sp)
    370c:	8fb00010 	lw	s0,16(sp)
    3710:	03e00008 	jr	ra
    3714:	27bd0020 	addiu	sp,sp,32

00003718 <tty_flip_buffer_push>:
    3718:	27bdffe8 	addiu	sp,sp,-24
    371c:	afbf0010 	sw	ra,16(sp)
    3720:	8c820128 	lw	v0,296(a0)
    3724:	3c030800 	lui	v1,0x800
    3728:	00431024 	and	v0,v0,v1
    372c:	10400005 	beqz	v0,3744 <tty_flip_buffer_push+0x2c>
    3730:	00802821 	move	a1,a0
    3734:	0c000d17 	jal	345c <flush_to_ldisc>
			3734: R_MIPS_26	.text
    3738:	00000000 	nop
    373c:	08000e04 	j	3810 <tty_flip_buffer_push+0xf8>
			373c: R_MIPS_26	.text
    3740:	00000000 	nop
    3744:	24860138 	addiu	a2,a0,312
    3748:	3c070000 	lui	a3,0x0
			3748: R_MIPS_HI16	tq_timer
    374c:	24e70000 	addiu	a3,a3,0
			374c: R_MIPS_LO16	tq_timer
    3750:	40046000 	mfc0	a0,$12
    3754:	00000000 	nop
    3758:	34810001 	ori	at,a0,0x1
    375c:	38210001 	xori	at,at,0x1
    3760:	40816000 	mtc0	at,$12
    3764:	00000040 	sll	zero,zero,0x1
    3768:	00000040 	sll	zero,zero,0x1
    376c:	00000040 	sll	zero,zero,0x1
    3770:	8ca30140 	lw	v1,320(a1)
    3774:	00000000 	nop
    3778:	30630001 	andi	v1,v1,0x1
    377c:	8ca20140 	lw	v0,320(a1)
    3780:	00000000 	nop
    3784:	34420001 	ori	v0,v0,0x1
    3788:	aca20140 	sw	v0,320(a1)
    378c:	40016000 	mfc0	at,$12
    3790:	30840001 	andi	a0,a0,0x1
    3794:	34210001 	ori	at,at,0x1
    3798:	38210001 	xori	at,at,0x1
    379c:	00812025 	or	a0,a0,at
    37a0:	40846000 	mtc0	a0,$12
    37a4:	00000040 	sll	zero,zero,0x1
    37a8:	00000040 	sll	zero,zero,0x1
    37ac:	00000040 	sll	zero,zero,0x1
    37b0:	14600017 	bnez	v1,3810 <tty_flip_buffer_push+0xf8>
    37b4:	00000000 	nop
    37b8:	40026000 	mfc0	v0,$12
    37bc:	00000000 	nop
    37c0:	34410001 	ori	at,v0,0x1
    37c4:	38210001 	xori	at,at,0x1
    37c8:	40816000 	mtc0	at,$12
    37cc:	00000040 	sll	zero,zero,0x1
    37d0:	00000040 	sll	zero,zero,0x1
    37d4:	00000040 	sll	zero,zero,0x1
    37d8:	8ce30004 	lw	v1,4(a3)
    37dc:	ace60004 	sw	a2,4(a3)
    37e0:	aca70138 	sw	a3,312(a1)
    37e4:	acc30004 	sw	v1,4(a2)
    37e8:	ac660000 	sw	a2,0(v1)
    37ec:	40016000 	mfc0	at,$12
    37f0:	30420001 	andi	v0,v0,0x1
    37f4:	34210001 	ori	at,at,0x1
    37f8:	38210001 	xori	at,at,0x1
    37fc:	00411025 	or	v0,v0,at
    3800:	40826000 	mtc0	v0,$12
    3804:	00000040 	sll	zero,zero,0x1
    3808:	00000040 	sll	zero,zero,0x1
    380c:	00000040 	sll	zero,zero,0x1
    3810:	8fbf0010 	lw	ra,16(sp)
    3814:	00000000 	nop
    3818:	03e00008 	jr	ra
    381c:	27bd0018 	addiu	sp,sp,24

00003820 <initialize_tty_struct>:
    3820:	27bdffe0 	addiu	sp,sp,-32
    3824:	afbf001c 	sw	ra,28(sp)
    3828:	afb00018 	sw	s0,24(sp)
    382c:	00808021 	move	s0,a0
    3830:	00002821 	move	a1,zero
    3834:	0c000000 	jal	0 <alloc_tty_struct>
			3834: R_MIPS_26	memset
    3838:	24060c38 	li	a2,3128
    383c:	24025401 	li	v0,21505
    3840:	ae020000 	sw	v0,0(s0)
    3844:	260200c4 	addiu	v0,s0,196
    3848:	3c030000 	lui	v1,0x0
			3848: R_MIPS_HI16	ldiscs
    384c:	24630000 	addiu	v1,v1,0
			384c: R_MIPS_LO16	ldiscs
    3850:	24640040 	addiu	a0,v1,64
    3854:	8c650000 	lw	a1,0(v1)
    3858:	8c660004 	lw	a2,4(v1)
    385c:	8c670008 	lw	a3,8(v1)
    3860:	8c68000c 	lw	t0,12(v1)
    3864:	ac450000 	sw	a1,0(v0)
    3868:	ac460004 	sw	a2,4(v0)
    386c:	ac470008 	sw	a3,8(v0)
    3870:	ac48000c 	sw	t0,12(v0)
    3874:	24630010 	addiu	v1,v1,16
    3878:	1464fff6 	bne	v1,a0,3854 <initialize_tty_struct+0x34>
    387c:	24420010 	addiu	v0,v0,16
    3880:	2402ffff 	li	v0,-1
    3884:	ae02010c 	sw	v0,268(s0)
    3888:	26020170 	addiu	v0,s0,368
    388c:	ae020160 	sw	v0,352(s0)
    3890:	26020570 	addiu	v0,s0,1392
    3894:	ae020164 	sw	v0,356(s0)
    3898:	3c020000 	lui	v0,0x0
			3898: R_MIPS_HI16	.text
    389c:	2442345c 	addiu	v0,v0,13404
			389c: R_MIPS_LO16	.text
    38a0:	ae020144 	sw	v0,324(s0)
    38a4:	ae100148 	sw	s0,328(s0)
    38a8:	26020150 	addiu	v0,s0,336
    38ac:	24030001 	li	v1,1
    38b0:	ae030150 	sw	v1,336(s0)
    38b4:	ac400004 	sw	zero,4(v0)
    38b8:	26020158 	addiu	v0,s0,344
    38bc:	ae020158 	sw	v0,344(s0)
    38c0:	ac420004 	sw	v0,4(v0)
    38c4:	26020980 	addiu	v0,s0,2432
    38c8:	ae020980 	sw	v0,2432(s0)
    38cc:	ac420004 	sw	v0,4(v0)
    38d0:	26020988 	addiu	v0,s0,2440
    38d4:	ae020988 	sw	v0,2440(s0)
    38d8:	ac420004 	sw	v0,4(v0)
    38dc:	3c020000 	lui	v0,0x0
			38dc: R_MIPS_HI16	do_tty_hangup
    38e0:	24420000 	addiu	v0,v0,0
			38e0: R_MIPS_LO16	do_tty_hangup
    38e4:	ae02099c 	sw	v0,2460(s0)
    38e8:	ae1009a0 	sw	s0,2464(s0)
    38ec:	26020c00 	addiu	v0,s0,3072
    38f0:	ae030c00 	sw	v1,3072(s0)
    38f4:	ac400004 	sw	zero,4(v0)
    38f8:	26020c08 	addiu	v0,s0,3080
    38fc:	ae020c08 	sw	v0,3080(s0)
    3900:	ac420004 	sw	v0,4(v0)
    3904:	26020c10 	addiu	v0,s0,3088
    3908:	ae030c10 	sw	v1,3088(s0)
    390c:	ac400004 	sw	zero,4(v0)
    3910:	26020c18 	addiu	v0,s0,3096
    3914:	ae020c18 	sw	v0,3096(s0)
    3918:	ac420004 	sw	v0,4(v0)
    391c:	260209ac 	addiu	v0,s0,2476
    3920:	ae0209ac 	sw	v0,2476(s0)
    3924:	ae0209b0 	sw	v0,2480(s0)
    3928:	26020c20 	addiu	v0,s0,3104
    392c:	ae020c20 	sw	v0,3104(s0)
    3930:	ae020c24 	sw	v0,3108(s0)
    3934:	ae000c28 	sw	zero,3112(s0)
    3938:	ae000c2c 	sw	zero,3116(s0)
    393c:	ae000c30 	sw	zero,3120(s0)
    3940:	8fbf001c 	lw	ra,28(sp)
    3944:	8fb00018 	lw	s0,24(sp)
    3948:	03e00008 	jr	ra
    394c:	27bd0020 	addiu	sp,sp,32

00003950 <tty_default_put_char>:
    3950:	27bdffe0 	addiu	sp,sp,-32
    3954:	afbf0018 	sw	ra,24(sp)
    3958:	a3a50010 	sb	a1,16(sp)
    395c:	8c820070 	lw	v0,112(a0)
    3960:	00002821 	move	a1,zero
    3964:	27a60010 	addiu	a2,sp,16
    3968:	0040f809 	jalr	v0
    396c:	24070001 	li	a3,1
    3970:	8fbf0018 	lw	ra,24(sp)
    3974:	00000000 	nop
    3978:	03e00008 	jr	ra
    397c:	27bd0020 	addiu	sp,sp,32

00003980 <tty_register_devfs>:
    3980:	03e00008 	jr	ra
    3984:	00000000 	nop

00003988 <tty_unregister_devfs>:
    3988:	03e00008 	jr	ra
    398c:	00000000 	nop

00003990 <tty_register_driver>:
    3990:	27bdffe0 	addiu	sp,sp,-32
    3994:	afbf001c 	sw	ra,28(sp)
    3998:	afb20018 	sw	s2,24(sp)
    399c:	afb10014 	sw	s1,20(sp)
    39a0:	afb00010 	sw	s0,16(sp)
    39a4:	00808021 	move	s0,a0
    39a8:	8c820044 	lw	v0,68(a0)
    39ac:	00000000 	nop
    39b0:	30420001 	andi	v0,v0,0x1
    39b4:	1440003a 	bnez	v0,3aa0 <tty_register_driver+0x110>
    39b8:	00001821 	move	v1,zero
    39bc:	84840010 	lh	a0,16(a0)
    39c0:	8e050008 	lw	a1,8(s0)
    39c4:	3c060000 	lui	a2,0x0
			39c4: R_MIPS_HI16	.data
    39c8:	0c000000 	jal	0 <alloc_tty_struct>
			39c8: R_MIPS_26	register_chrdev
    39cc:	24c60000 	addiu	a2,a2,0
			39cc: R_MIPS_LO16	.data
    39d0:	00409021 	move	s2,v0
    39d4:	04400032 	bltz	v0,3aa0 <tty_register_driver+0x110>
    39d8:	00401821 	move	v1,v0
    39dc:	86020010 	lh	v0,16(s0)
    39e0:	00000000 	nop
    39e4:	14400002 	bnez	v0,39f0 <tty_register_driver+0x60>
    39e8:	00000000 	nop
    39ec:	a6120010 	sh	s2,16(s0)
    39f0:	8e020070 	lw	v0,112(s0)
    39f4:	00000000 	nop
    39f8:	14400004 	bnez	v0,3a0c <tty_register_driver+0x7c>
    39fc:	00000000 	nop
    3a00:	3c020000 	lui	v0,0x0
			3a00: R_MIPS_HI16	tty_default_put_char
    3a04:	24420000 	addiu	v0,v0,0
			3a04: R_MIPS_LO16	tty_default_put_char
    3a08:	ae020070 	sw	v0,112(s0)
    3a0c:	ae0000bc 	sw	zero,188(s0)
    3a10:	3c020000 	lui	v0,0x0
			3a10: R_MIPS_HI16	tty_drivers
    3a14:	8c420000 	lw	v0,0(v0)
			3a14: R_MIPS_LO16	tty_drivers
    3a18:	00000000 	nop
    3a1c:	ae0200b8 	sw	v0,184(s0)
    3a20:	3c020000 	lui	v0,0x0
			3a20: R_MIPS_HI16	tty_drivers
    3a24:	8c420000 	lw	v0,0(v0)
			3a24: R_MIPS_LO16	tty_drivers
    3a28:	00000000 	nop
    3a2c:	10400002 	beqz	v0,3a38 <tty_register_driver+0xa8>
    3a30:	00000000 	nop
    3a34:	ac5000bc 	sw	s0,188(v0)
    3a38:	3c010000 	lui	at,0x0
			3a38: R_MIPS_HI16	tty_drivers
    3a3c:	ac300000 	sw	s0,0(at)
			3a3c: R_MIPS_LO16	tty_drivers
    3a40:	8e020044 	lw	v0,68(s0)
    3a44:	00000000 	nop
    3a48:	30420008 	andi	v0,v0,0x8
    3a4c:	14400011 	bnez	v0,3a94 <tty_register_driver+0x104>
    3a50:	00000000 	nop
    3a54:	86020014 	lh	v0,20(s0)
    3a58:	00000000 	nop
    3a5c:	1840000d 	blez	v0,3a94 <tty_register_driver+0x104>
    3a60:	00008821 	move	s1,zero
    3a64:	86060012 	lh	a2,18(s0)
    3a68:	00000000 	nop
    3a6c:	00d13021 	addu	a2,a2,s1
    3a70:	02002021 	move	a0,s0
    3a74:	0c000000 	jal	0 <alloc_tty_struct>
			3a74: R_MIPS_26	tty_register_devfs
    3a78:	00002821 	move	a1,zero
    3a7c:	26310001 	addiu	s1,s1,1
    3a80:	86020014 	lh	v0,20(s0)
    3a84:	00000000 	nop
    3a88:	0222102a 	slt	v0,s1,v0
    3a8c:	1440fff5 	bnez	v0,3a64 <tty_register_driver+0xd4>
    3a90:	00000000 	nop
    3a94:	0c000000 	jal	0 <alloc_tty_struct>
			3a94: R_MIPS_26	proc_tty_register_driver
    3a98:	02002021 	move	a0,s0
    3a9c:	02401821 	move	v1,s2
    3aa0:	00601021 	move	v0,v1
    3aa4:	8fbf001c 	lw	ra,28(sp)
    3aa8:	8fb20018 	lw	s2,24(sp)
    3aac:	8fb10014 	lw	s1,20(sp)
    3ab0:	8fb00010 	lw	s0,16(sp)
    3ab4:	03e00008 	jr	ra
    3ab8:	27bd0020 	addiu	sp,sp,32

00003abc <tty_unregister_driver>:
    3abc:	27bdffe0 	addiu	sp,sp,-32
    3ac0:	afbf0018 	sw	ra,24(sp)
    3ac4:	afb10014 	sw	s1,20(sp)
    3ac8:	afb00010 	sw	s0,16(sp)
    3acc:	00808021 	move	s0,a0
    3ad0:	00003021 	move	a2,zero
    3ad4:	00002821 	move	a1,zero
    3ad8:	8c820048 	lw	v0,72(a0)
    3adc:	00000000 	nop
    3ae0:	8c420000 	lw	v0,0(v0)
    3ae4:	00000000 	nop
    3ae8:	14400059 	bnez	v0,3c50 <tty_unregister_driver+0x194>
    3aec:	2403fff0 	li	v1,-16
    3af0:	3c040000 	lui	a0,0x0
			3af0: R_MIPS_HI16	tty_drivers
    3af4:	8c840000 	lw	a0,0(a0)
			3af4: R_MIPS_LO16	tty_drivers
    3af8:	00000000 	nop
    3afc:	1080000f 	beqz	a0,3b3c <tty_unregister_driver+0x80>
    3b00:	00000000 	nop
    3b04:	14900003 	bne	a0,s0,3b14 <tty_unregister_driver+0x58>
    3b08:	00000000 	nop
    3b0c:	08000ecb 	j	3b2c <tty_unregister_driver+0x70>
			3b0c: R_MIPS_26	.text
    3b10:	24c60001 	addiu	a2,a2,1
    3b14:	84830010 	lh	v1,16(a0)
    3b18:	86020010 	lh	v0,16(s0)
    3b1c:	00000000 	nop
    3b20:	14620002 	bne	v1,v0,3b2c <tty_unregister_driver+0x70>
    3b24:	00000000 	nop
    3b28:	8c850008 	lw	a1,8(a0)
    3b2c:	8c8400b8 	lw	a0,184(a0)
    3b30:	00000000 	nop
    3b34:	1480fff3 	bnez	a0,3b04 <tty_unregister_driver+0x48>
    3b38:	00000000 	nop
    3b3c:	10c00044 	beqz	a2,3c50 <tty_unregister_driver+0x194>
    3b40:	2403fffe 	li	v1,-2
    3b44:	14a00009 	bnez	a1,3b6c <tty_unregister_driver+0xb0>
    3b48:	00000000 	nop
    3b4c:	86040010 	lh	a0,16(s0)
    3b50:	8e050008 	lw	a1,8(s0)
    3b54:	0c000000 	jal	0 <alloc_tty_struct>
			3b54: R_MIPS_26	unregister_chrdev
    3b58:	00000000 	nop
    3b5c:	1440003c 	bnez	v0,3c50 <tty_unregister_driver+0x194>
    3b60:	00401821 	move	v1,v0
    3b64:	08000edf 	j	3b7c <tty_unregister_driver+0xc0>
			3b64: R_MIPS_26	.text
    3b68:	00000000 	nop
    3b6c:	86040010 	lh	a0,16(s0)
    3b70:	3c060000 	lui	a2,0x0
			3b70: R_MIPS_HI16	.data
    3b74:	0c000000 	jal	0 <alloc_tty_struct>
			3b74: R_MIPS_26	register_chrdev
    3b78:	24c60000 	addiu	a2,a2,0
			3b78: R_MIPS_LO16	.data
    3b7c:	8e0300bc 	lw	v1,188(s0)
    3b80:	00000000 	nop
    3b84:	10600004 	beqz	v1,3b98 <tty_unregister_driver+0xdc>
    3b88:	00000000 	nop
    3b8c:	8e0200b8 	lw	v0,184(s0)
    3b90:	08000ee9 	j	3ba4 <tty_unregister_driver+0xe8>
			3b90: R_MIPS_26	.text
    3b94:	ac6200b8 	sw	v0,184(v1)
    3b98:	8e0200b8 	lw	v0,184(s0)
    3b9c:	3c010000 	lui	at,0x0
			3b9c: R_MIPS_HI16	tty_drivers
    3ba0:	ac220000 	sw	v0,0(at)
			3ba0: R_MIPS_LO16	tty_drivers
    3ba4:	8e0300b8 	lw	v1,184(s0)
    3ba8:	00000000 	nop
    3bac:	10600004 	beqz	v1,3bc0 <tty_unregister_driver+0x104>
    3bb0:	00000000 	nop
    3bb4:	8e0200bc 	lw	v0,188(s0)
    3bb8:	00000000 	nop
    3bbc:	ac6200bc 	sw	v0,188(v1)
    3bc0:	86020014 	lh	v0,20(s0)
    3bc4:	00000000 	nop
    3bc8:	1840001e 	blez	v0,3c44 <tty_unregister_driver+0x188>
    3bcc:	00008821 	move	s1,zero
    3bd0:	8e030058 	lw	v1,88(s0)
    3bd4:	00111080 	sll	v0,s1,0x2
    3bd8:	00431021 	addu	v0,v0,v1
    3bdc:	8c440000 	lw	a0,0(v0)
    3be0:	00000000 	nop
    3be4:	10800003 	beqz	a0,3bf4 <tty_unregister_driver+0x138>
    3be8:	00000000 	nop
    3bec:	0c000000 	jal	0 <alloc_tty_struct>
			3bec: R_MIPS_26	kfree
    3bf0:	ac400000 	sw	zero,0(v0)
    3bf4:	8e03005c 	lw	v1,92(s0)
    3bf8:	00111080 	sll	v0,s1,0x2
    3bfc:	00431021 	addu	v0,v0,v1
    3c00:	8c440000 	lw	a0,0(v0)
    3c04:	00000000 	nop
    3c08:	10800003 	beqz	a0,3c18 <tty_unregister_driver+0x15c>
    3c0c:	00000000 	nop
    3c10:	0c000000 	jal	0 <alloc_tty_struct>
			3c10: R_MIPS_26	kfree
    3c14:	ac400000 	sw	zero,0(v0)
    3c18:	86050012 	lh	a1,18(s0)
    3c1c:	00000000 	nop
    3c20:	00b12821 	addu	a1,a1,s1
    3c24:	0c000000 	jal	0 <alloc_tty_struct>
			3c24: R_MIPS_26	tty_unregister_devfs
    3c28:	02002021 	move	a0,s0
    3c2c:	26310001 	addiu	s1,s1,1
    3c30:	86020014 	lh	v0,20(s0)
    3c34:	00000000 	nop
    3c38:	0222102a 	slt	v0,s1,v0
    3c3c:	1440ffe4 	bnez	v0,3bd0 <tty_unregister_driver+0x114>
    3c40:	00000000 	nop
    3c44:	0c000000 	jal	0 <alloc_tty_struct>
			3c44: R_MIPS_26	proc_tty_unregister_driver
    3c48:	02002021 	move	a0,s0
    3c4c:	00001821 	move	v1,zero
    3c50:	00601021 	move	v0,v1
    3c54:	8fbf0018 	lw	ra,24(sp)
    3c58:	8fb10014 	lw	s1,20(sp)
    3c5c:	8fb00010 	lw	s0,16(sp)
    3c60:	03e00008 	jr	ra
    3c64:	27bd0020 	addiu	sp,sp,32

00003c68 <tty_paranoia_check>:
    3c68:	27bdffe8 	addiu	sp,sp,-24
    3c6c:	afbf0014 	sw	ra,20(sp)
    3c70:	afb00010 	sw	s0,16(sp)
    3c74:	00c08021 	move	s0,a2
    3c78:	14800007 	bnez	a0,3c98 <tty_paranoia_check+0x30>
    3c7c:	30a5ffff 	andi	a1,a1,0xffff
    3c80:	0c000000 	jal	0 <alloc_tty_struct>
			3c80: R_MIPS_26	kdevname
    3c84:	00a02021 	move	a0,a1
    3c88:	3c040000 	lui	a0,0x0
			3c88: R_MIPS_HI16	.rodata
    3c8c:	2484011c 	addiu	a0,a0,284
			3c8c: R_MIPS_LO16	.rodata
    3c90:	08000f2f 	j	3cbc <tty_paranoia_check+0x54>
			3c90: R_MIPS_26	.text
    3c94:	00402821 	move	a1,v0
    3c98:	8c830000 	lw	v1,0(a0)
    3c9c:	24025401 	li	v0,21505
    3ca0:	1062000a 	beq	v1,v0,3ccc <tty_paranoia_check+0x64>
    3ca4:	00000000 	nop
    3ca8:	0c000000 	jal	0 <alloc_tty_struct>
			3ca8: R_MIPS_26	kdevname
    3cac:	00a02021 	move	a0,a1
    3cb0:	3c040000 	lui	a0,0x0
			3cb0: R_MIPS_HI16	.rodata
    3cb4:	248400e4 	addiu	a0,a0,228
			3cb4: R_MIPS_LO16	.rodata
    3cb8:	00402821 	move	a1,v0
    3cbc:	0c000000 	jal	0 <alloc_tty_struct>
			3cbc: R_MIPS_26	printk
    3cc0:	02003021 	move	a2,s0
    3cc4:	08000f34 	j	3cd0 <tty_paranoia_check+0x68>
			3cc4: R_MIPS_26	.text
    3cc8:	24020001 	li	v0,1
    3ccc:	00001021 	move	v0,zero
    3cd0:	8fbf0014 	lw	ra,20(sp)
    3cd4:	8fb00010 	lw	s0,16(sp)
    3cd8:	03e00008 	jr	ra
    3cdc:	27bd0018 	addiu	sp,sp,24

00003ce0 <do_tty_write>:
    3ce0:	27bdffd0 	addiu	sp,sp,-48
    3ce4:	afbf002c 	sw	ra,44(sp)
    3ce8:	afb60028 	sw	s6,40(sp)
    3cec:	afb50024 	sw	s5,36(sp)
    3cf0:	afb40020 	sw	s4,32(sp)
    3cf4:	afb3001c 	sw	s3,28(sp)
    3cf8:	afb20018 	sw	s2,24(sp)
    3cfc:	afb10014 	sw	s1,20(sp)
    3d00:	afb00010 	sw	s0,16(sp)
    3d04:	0080b021 	move	s6,a0
    3d08:	00a09821 	move	s3,a1
    3d0c:	00c0a821 	move	s5,a2
    3d10:	00e09021 	move	s2,a3
    3d14:	8fb00040 	lw	s0,64(sp)
    3d18:	00008821 	move	s1,zero
    3d1c:	8cc20018 	lw	v0,24(a2)
    3d20:	00000000 	nop
    3d24:	30420080 	andi	v0,v0,0x80
    3d28:	10400020 	beqz	v0,3dac <do_tty_write+0xcc>
    3d2c:	0000a021 	move	s4,zero
    3d30:	24a40c10 	addiu	a0,a1,3088
    3d34:	00002821 	move	a1,zero
    3d38:	40036000 	mfc0	v1,$12
    3d3c:	40016000 	mfc0	at,$12
    3d40:	00000000 	nop
    3d44:	34210001 	ori	at,at,0x1
    3d48:	38210001 	xori	at,at,0x1
    3d4c:	40816000 	mtc0	at,$12
    3d50:	00000040 	sll	zero,zero,0x1
    3d54:	00000040 	sll	zero,zero,0x1
    3d58:	00000040 	sll	zero,zero,0x1
    3d5c:	8e620c10 	lw	v0,3088(s3)
    3d60:	00000000 	nop
    3d64:	2442ffff 	addiu	v0,v0,-1
    3d68:	ae620c10 	sw	v0,3088(s3)
    3d6c:	40016000 	mfc0	at,$12
    3d70:	30630001 	andi	v1,v1,0x1
    3d74:	34210001 	ori	at,at,0x1
    3d78:	38210001 	xori	at,at,0x1
    3d7c:	00611825 	or	v1,v1,at
    3d80:	40836000 	mtc0	v1,$12
    3d84:	00000040 	sll	zero,zero,0x1
    3d88:	00000040 	sll	zero,zero,0x1
    3d8c:	00000040 	sll	zero,zero,0x1
    3d90:	04410004 	bgez	v0,3da4 <do_tty_write+0xc4>
    3d94:	00000000 	nop
    3d98:	0c000000 	jal	0 <alloc_tty_struct>
			3d98: R_MIPS_26	__down_trylock
    3d9c:	00000000 	nop
    3da0:	00402821 	move	a1,v0
    3da4:	08000f89 	j	3e24 <do_tty_write+0x144>
			3da4: R_MIPS_26	.text
    3da8:	2402fff5 	li	v0,-11
    3dac:	24a40c10 	addiu	a0,a1,3088
    3db0:	00002821 	move	a1,zero
    3db4:	40036000 	mfc0	v1,$12
    3db8:	40016000 	mfc0	at,$12
    3dbc:	00000000 	nop
    3dc0:	34210001 	ori	at,at,0x1
    3dc4:	38210001 	xori	at,at,0x1
    3dc8:	40816000 	mtc0	at,$12
    3dcc:	00000040 	sll	zero,zero,0x1
    3dd0:	00000040 	sll	zero,zero,0x1
    3dd4:	00000040 	sll	zero,zero,0x1
    3dd8:	8e620c10 	lw	v0,3088(s3)
    3ddc:	00000000 	nop
    3de0:	2442ffff 	addiu	v0,v0,-1
    3de4:	ae620c10 	sw	v0,3088(s3)
    3de8:	40016000 	mfc0	at,$12
    3dec:	30630001 	andi	v1,v1,0x1
    3df0:	34210001 	ori	at,at,0x1
    3df4:	38210001 	xori	at,at,0x1
    3df8:	00611825 	or	v1,v1,at
    3dfc:	40836000 	mtc0	v1,$12
    3e00:	00000040 	sll	zero,zero,0x1
    3e04:	00000040 	sll	zero,zero,0x1
    3e08:	00000040 	sll	zero,zero,0x1
    3e0c:	04410005 	bgez	v0,3e24 <do_tty_write+0x144>
    3e10:	2402fe00 	li	v0,-512
    3e14:	0c000000 	jal	0 <alloc_tty_struct>
			3e14: R_MIPS_26	__down_interruptible
    3e18:	00000000 	nop
    3e1c:	00402821 	move	a1,v0
    3e20:	2402fe00 	li	v0,-512
    3e24:	14a0004d 	bnez	a1,3f5c <do_tty_write+0x27c>
    3e28:	00000000 	nop
    3e2c:	8e620118 	lw	v0,280(s3)
    3e30:	00000000 	nop
    3e34:	00021442 	srl	v0,v0,0x11
    3e38:	30420001 	andi	v0,v0,0x1
    3e3c:	10400009 	beqz	v0,3e64 <do_tty_write+0x184>
    3e40:	2e024000 	sltiu	v0,s0,16384
    3e44:	02602021 	move	a0,s3
    3e48:	02a02821 	move	a1,s5
    3e4c:	02403021 	move	a2,s2
    3e50:	02c0f809 	jalr	s6
    3e54:	02003821 	move	a3,s0
    3e58:	08000fb2 	j	3ec8 <do_tty_write+0x1e8>
			3e58: R_MIPS_26	.text
    3e5c:	0040a021 	move	s4,v0
    3e60:	2e024000 	sltiu	v0,s0,16384
    3e64:	10400002 	beqz	v0,3e70 <do_tty_write+0x190>
    3e68:	24074000 	li	a3,16384
    3e6c:	02003821 	move	a3,s0
    3e70:	02602021 	move	a0,s3
    3e74:	02a02821 	move	a1,s5
    3e78:	02c0f809 	jalr	s6
    3e7c:	02403021 	move	a2,s2
    3e80:	18400011 	blez	v0,3ec8 <do_tty_write+0x1e8>
    3e84:	00408821 	move	s1,v0
    3e88:	0282a021 	addu	s4,s4,v0
    3e8c:	02028023 	subu	s0,s0,v0
    3e90:	1200000d 	beqz	s0,3ec8 <do_tty_write+0x1e8>
    3e94:	02429021 	addu	s2,s2,v0
    3e98:	8f820008 	lw	v0,8(gp)
    3e9c:	00000000 	nop
    3ea0:	14400009 	bnez	v0,3ec8 <do_tty_write+0x1e8>
    3ea4:	2411fe00 	li	s1,-512
    3ea8:	8f820014 	lw	v0,20(gp)
    3eac:	00000000 	nop
    3eb0:	1040ffeb 	beqz	v0,3e60 <do_tty_write+0x180>
    3eb4:	00000000 	nop
    3eb8:	0c000000 	jal	0 <alloc_tty_struct>
			3eb8: R_MIPS_26	schedule
    3ebc:	00000000 	nop
    3ec0:	08000f99 	j	3e64 <do_tty_write+0x184>
			3ec0: R_MIPS_26	.text
    3ec4:	2e024000 	sltiu	v0,s0,16384
    3ec8:	12800009 	beqz	s4,3ef0 <do_tty_write+0x210>
    3ecc:	26640c10 	addiu	a0,s3,3088
    3ed0:	8ea20008 	lw	v0,8(s5)
    3ed4:	00000000 	nop
    3ed8:	8c430008 	lw	v1,8(v0)
    3edc:	3c020000 	lui	v0,0x0
			3edc: R_MIPS_HI16	xtime
    3ee0:	8c420000 	lw	v0,0(v0)
			3ee0: R_MIPS_LO16	xtime
    3ee4:	00000000 	nop
    3ee8:	ac620054 	sw	v0,84(v1)
    3eec:	02808821 	move	s1,s4
    3ef0:	40036000 	mfc0	v1,$12
    3ef4:	40016000 	mfc0	at,$12
    3ef8:	00000000 	nop
    3efc:	34210001 	ori	at,at,0x1
    3f00:	38210001 	xori	at,at,0x1
    3f04:	40816000 	mtc0	at,$12
    3f08:	00000040 	sll	zero,zero,0x1
    3f0c:	00000040 	sll	zero,zero,0x1
    3f10:	00000040 	sll	zero,zero,0x1
    3f14:	8e620c10 	lw	v0,3088(s3)
    3f18:	00000000 	nop
    3f1c:	24420001 	addiu	v0,v0,1
    3f20:	ae620c10 	sw	v0,3088(s3)
    3f24:	40016000 	mfc0	at,$12
    3f28:	30630001 	andi	v1,v1,0x1
    3f2c:	34210001 	ori	at,at,0x1
    3f30:	38210001 	xori	at,at,0x1
    3f34:	00611825 	or	v1,v1,at
    3f38:	40836000 	mtc0	v1,$12
    3f3c:	00000040 	sll	zero,zero,0x1
    3f40:	00000040 	sll	zero,zero,0x1
    3f44:	00000040 	sll	zero,zero,0x1
    3f48:	1c400004 	bgtz	v0,3f5c <do_tty_write+0x27c>
    3f4c:	02201021 	move	v0,s1
    3f50:	0c000000 	jal	0 <alloc_tty_struct>
			3f50: R_MIPS_26	__up
    3f54:	00000000 	nop
    3f58:	02201021 	move	v0,s1
    3f5c:	8fbf002c 	lw	ra,44(sp)
    3f60:	8fb60028 	lw	s6,40(sp)
    3f64:	8fb50024 	lw	s5,36(sp)
    3f68:	8fb40020 	lw	s4,32(sp)
    3f6c:	8fb3001c 	lw	s3,28(sp)
    3f70:	8fb20018 	lw	s2,24(sp)
    3f74:	8fb10014 	lw	s1,20(sp)
    3f78:	8fb00010 	lw	s0,16(sp)
    3f7c:	03e00008 	jr	ra
    3f80:	27bd0030 	addiu	sp,sp,48
	...
Disassembly of section .data:

00000000 <tty_fops>:
	...
			4: R_MIPS_32	no_llseek
   8:	00000d74 	0xd74
			8: R_MIPS_32	.text
   c:	00000eb0 	0xeb0
			c: R_MIPS_32	.text
  10:	00000000 	nop
  14:	000024a0 	0x24a0
			14: R_MIPS_32	.text
	...
			18: R_MIPS_32	tty_ioctl
  20:	00001f90 	0x1f90
			20: R_MIPS_32	.text
  24:	00000000 	nop
  28:	0000247c 	0x247c
			28: R_MIPS_32	.text
  2c:	00000000 	nop
  30:	00002580 	sll	a0,zero,0x16
			30: R_MIPS_32	.text
	...

00000048 <hung_up_tty_fops>:
	...
			4c: R_MIPS_32	no_llseek
  50:	00000658 	0x658
			50: R_MIPS_32	.text
  54:	00000670 	0x670
			54: R_MIPS_32	.text
  58:	00000000 	nop
  5c:	00000688 	0x688
			5c: R_MIPS_32	.text
  60:	00000690 	0x690
			60: R_MIPS_32	.text
	...
  70:	0000247c 	0x247c
			70: R_MIPS_32	.text
	...

00000090 <tty_sem>:
  90:	00000001 	0x1
  94:	00000000 	nop
  98:	00000098 	0x98
			98: R_MIPS_32	.data
  9c:	00000098 	0x98
			9c: R_MIPS_32	.data

000000a0 <baud_table>:
  a0:	00000000 	nop
  a4:	00000032 	0x32
  a8:	0000004b 	0x4b
  ac:	0000006e 	0x6e
  b0:	00000086 	0x86
  b4:	00000096 	0x96
  b8:	000000c8 	0xc8
  bc:	0000012c 	0x12c
  c0:	00000258 	0x258
  c4:	000004b0 	0x4b0
  c8:	00000708 	0x708
  cc:	00000960 	0x960
  d0:	000012c0 	sll	v0,zero,0xb
  d4:	00002580 	sll	a0,zero,0x16
  d8:	00004b00 	sll	t1,zero,0xc
  dc:	00009600 	sll	s2,zero,0x18
  e0:	0000e100 	sll	gp,zero,0x4
  e4:	0001c200 	sll	t8,at,0x8
  e8:	00038400 	sll	s0,v1,0x10
  ec:	00070800 	sll	at,a3,0x0
  f0:	0007a120 	0x7a120
  f4:	0008ca00 	sll	t9,t0,0x8
  f8:	000e1000 	sll	v0,t6,0x0
  fc:	000f4240 	sll	t0,t7,0x9
 100:	00119400 	sll	s2,s1,0x10
 104:	0016e360 	0x16e360
 108:	001e8480 	sll	s0,s8,0x12
 10c:	002625a0 	0x2625a0
 110:	002dc6c0 	0x2dc6c0
 114:	003567e0 	0x3567e0
 118:	003d0900 	0x3d0900

0000011c <n_baud_table>:
 11c:	0000001f 	0x1f
Disassembly of section .reginfo:

00000000 <.reginfo>:
   0:	f0ff03fe 	0xf0ff03fe
	...
Disassembly of section .rodata:

00000000 <badmagic.0-0xe4>:
   0:	4e554c4c 	c3	0x554c4c
   4:	20747479 	addi	s4,v1,29817
   8:	00000000 	nop
   c:	3c343e57 	0x3c343e57
  10:	61726e69 	0x61726e69
  14:	6e673a20 	0x6e673a20
  18:	64657620 	0x64657620
  1c:	28257329 	slti	a1,at,29481
  20:	20747479 	addi	s4,v1,29817
  24:	2d3e636f 	sltiu	s8,t1,25455
  28:	756e7428 	0x756e7428
  2c:	25642920 	addiu	a0,t3,10528
  30:	213d2023 	addi	sp,t1,8227
  34:	66642773 	0x66642773
  38:	28256429 	slti	a1,at,25641
  3c:	20696e20 	addi	t1,v1,28192
  40:	25730a00 	addiu	s3,t3,2560
  44:	7474792d 	0x7474792d
  48:	6c646973 	0x6c646973
  4c:	632d2564 	0x632d2564
  50:	00000000 	nop
  54:	436f756c 	c0	0x16f756c
  58:	646e2774 	0x646e2774
  5c:	206f7065 	addi	t7,v1,28773
  60:	6e204e5f 	0x6e204e5f
  64:	54545920 	0x54545920
  68:	6c646973 	0x6c646973
  6c:	6320666f 	0x6320666f
  70:	72202573 	0x72202573
  74:	202d2d2d 	addi	t5,at,11565
  78:	20657272 	addi	a1,v1,29298
  7c:	6f722025 	0x6f722025
  80:	642e0000 	0x642e0000
  84:	3c343e74 	0x3c343e74
  88:	74795f63 	0x74795f63
  8c:	6865636b 	0x6865636b
  90:	5f636861 	0x5f636861
  94:	6e67653a 	0x6e67653a
  98:	20747479 	addi	s4,v1,29817
  9c:	2d3e7067 	sltiu	s8,t1,28775
  a0:	7270203c 	0x7270203c
  a4:	3d203021 	0x3d203021
  a8:	0a000000 	j	8000000 <do_tty_write+0x7ffc320>
  ac:	646f5f74 	0x646f5f74
  b0:	74795f68 	0x74795f68
  b4:	616e6775 	0x616e6775
  b8:	70000000 	0x70000000
  bc:	3c333e64 	0x3c333e64
  c0:	6f5f7474 	0x6f5f7474
  c4:	795f6861 	0x795f6861
  c8:	6e677570 	0x6e677570
  cc:	3a204e5f 	xori	zero,s1,0x4e5f
  d0:	54545920 	0x54545920
  d4:	6f70656e 	0x6f70656e
  d8:	3a206572 	xori	zero,s1,0x6572
  dc:	726f7220 	0x726f7220
  e0:	25640a00 	addiu	a0,t3,2560

000000e4 <badmagic.0>:
  e4:	3c343e57 	0x3c343e57
  e8:	61726e69 	0x61726e69
  ec:	6e673a20 	0x6e673a20
  f0:	62616420 	0x62616420
  f4:	6d616769 	0x6d616769
  f8:	63206e75 	0x63206e75
  fc:	6d626572 	0x6d626572
 100:	20666f72 	addi	a2,v1,28530
 104:	20747479 	addi	s4,v1,29817
 108:	20737472 	addi	s3,v1,29810
 10c:	75637420 	0x75637420
 110:	28257329 	slti	a1,at,29481
 114:	20696e20 	addi	t1,v1,28192
 118:	25730a00 	addiu	s3,t3,2560

0000011c <badtty.1>:
 11c:	3c343e57 	0x3c343e57
 120:	61726e69 	0x61726e69
 124:	6e673a20 	0x6e673a20
 128:	6e756c6c 	0x6e756c6c
 12c:	20545459 	addi	s4,v0,21593
 130:	20666f72 	addi	a2,v1,28530
 134:	20282573 	addi	t0,at,9587
 138:	2920696e 	slti	zero,t1,26990
 13c:	2025730a 	addi	a1,at,29450
 140:	00000000 	nop
 144:	7474795f 	0x7474795f
 148:	72656164 	0x72656164
 14c:	00000000 	nop
 150:	7474795f 	0x7474795f
 154:	77726974 	0x77726974
 158:	65000000 	0x65000000
 15c:	3c363e69 	0x3c363e69
 160:	6e69745f 	0x6e69745f
 164:	6465763a 	0x6465763a
 168:	206c6469 	addi	t4,v1,25705
 16c:	7363206f 	0x7363206f
 170:	70656e20 	0x70656e20
 174:	6661696c 	0x6661696c
 178:	65642c20 	0x65642c20
 17c:	636c6561 	0x636c6561
 180:	72696e67 	0x72696e67
 184:	20736c6f 	addi	s3,v1,27759
 188:	74202564 	0x74202564
 18c:	0a000000 	j	8000000 <do_tty_write+0x7ffc320>
 190:	72656c65 	0x72656c65
 194:	6173655f 	0x6173655f
 198:	64657600 	0x64657600
 19c:	3c373e72 	0x3c373e72
 1a0:	656c6561 	0x656c6561
 1a4:	73655f64 	0x73655f64
 1a8:	65763a20 	0x65763a20
 1ac:	62616420 	0x62616420
 1b0:	69647820 	0x69647820
 1b4:	7768656e 	0x7768656e
 1b8:	20747279 	addi	s4,v1,29305
 1bc:	696e6720 	0x696e6720
 1c0:	746f2066 	0x746f2066
 1c4:	72656520 	0x72656520
 1c8:	28257329 	slti	a1,at,29481
 1cc:	0a000000 	j	8000000 <do_tty_write+0x7ffc320>
 1d0:	3c373e72 	0x3c373e72
 1d4:	656c6561 	0x656c6561
 1d8:	73655f64 	0x73655f64
 1dc:	65763a20 	0x65763a20
 1e0:	64726976 	0x64726976
 1e4:	65722e74 	0x65722e74
 1e8:	61626c65 	0x61626c65
 1ec:	5b25645d 	0x5b25645d
 1f0:	206e6f74 	addi	t6,v1,28532
 1f4:	20747479 	addi	s4,v1,29817
 1f8:	20666f72 	addi	a2,v1,28530
 1fc:	20282573 	addi	t0,at,9587
 200:	290a0000 	slti	t2,t0,0
 204:	3c373e72 	0x3c373e72
 208:	656c6561 	0x656c6561
 20c:	73655f64 	0x73655f64
 210:	65763a20 	0x65763a20
 214:	64726976 	0x64726976
 218:	65722e74 	0x65722e74
 21c:	65726d69 	0x65726d69
 220:	6f735b25 	0x6f735b25
 224:	645d206e 	0x645d206e
 228:	6f742074 	0x6f742074
 22c:	65726d69 	0x65726d69
 230:	6f732066 	0x6f732066
 234:	6f722028 	0x6f722028
 238:	2573290a 	addiu	s3,t3,10506
 23c:	00000000 	nop
 240:	3c373e72 	0x3c373e72
 244:	656c6561 	0x656c6561
 248:	73655f64 	0x73655f64
 24c:	65763a20 	0x65763a20
 250:	64726976 	0x64726976
 254:	65722e74 	0x65722e74
 258:	65726d69 	0x65726d69
 25c:	6f735f6c 	0x6f735f6c
 260:	6f636b65 	0x6f636b65
 264:	645b2564 	0x645b2564
 268:	5d206e6f 	0x5d206e6f
 26c:	74207465 	0x74207465
 270:	726d696f 	0x726d696f
 274:	735f6c6f 	0x735f6c6f
 278:	636b6564 	0x636b6564
 27c:	20666f72 	addi	a2,v1,28530
 280:	20282573 	addi	t0,at,9587
 284:	290a0000 	slti	t2,t0,0
 288:	3c373e72 	0x3c373e72
 28c:	656c6561 	0x656c6561
 290:	73655f64 	0x73655f64
 294:	65763a20 	0x65763a20
 298:	6f746865 	0x6f746865
 29c:	722d3e74 	0x722d3e74
 2a0:	61626c65 	0x61626c65
 2a4:	5b25645d 	0x5b25645d
 2a8:	206e6f74 	addi	t6,v1,28532
 2ac:	206f5f74 	addi	t7,v1,24436
 2b0:	74792066 	0x74792066
 2b4:	6f722028 	0x6f722028
 2b8:	2573290a 	addiu	s3,t3,10506
 2bc:	00000000 	nop
 2c0:	3c373e72 	0x3c373e72
 2c4:	656c6561 	0x656c6561
 2c8:	73655f64 	0x73655f64
 2cc:	65763a20 	0x65763a20
 2d0:	6f746865 	0x6f746865
 2d4:	722d3e74 	0x722d3e74
 2d8:	65726d69 	0x65726d69
 2dc:	6f735b25 	0x6f735b25
 2e0:	645d206e 	0x645d206e
 2e4:	6f74206f 	0x6f74206f
 2e8:	5f746572 	0x5f746572
 2ec:	6d696f73 	0x6d696f73
 2f0:	20666f72 	addi	a2,v1,28530
 2f4:	20282573 	addi	t0,at,9587
 2f8:	290a0000 	slti	t2,t0,0
 2fc:	3c373e72 	0x3c373e72
 300:	656c6561 	0x656c6561
 304:	73655f64 	0x73655f64
 308:	65763a20 	0x65763a20
 30c:	6f746865 	0x6f746865
 310:	722d3e74 	0x722d3e74
 314:	65726d69 	0x65726d69
 318:	6f735f6c 	0x6f735f6c
 31c:	6f636b65 	0x6f636b65
 320:	645b2564 	0x645b2564
 324:	5d206e6f 	0x5d206e6f
 328:	74206f5f 	0x74206f5f
 32c:	7465726d 	0x7465726d
 330:	696f735f 	0x696f735f
 334:	6c6f636b 	0x6c6f636b
 338:	65642066 	0x65642066
 33c:	6f722028 	0x6f722028
 340:	2573290a 	addiu	s3,t3,10506
 344:	00000000 	nop
 348:	3c373e72 	0x3c373e72
 34c:	656c6561 	0x656c6561
 350:	73655f64 	0x73655f64
 354:	65763a20 	0x65763a20
 358:	62616420 	0x62616420
 35c:	70747920 	0x70747920
 360:	706f696e 	0x706f696e
 364:	74657273 	0x74657273
 368:	0a000000 	j	8000000 <do_tty_write+0x7ffc320>
 36c:	3c343e72 	0x3c343e72
 370:	656c6561 	0x656c6561
 374:	73655f64 	0x73655f64
 378:	65763a20 	0x65763a20
 37c:	25733a20 	addiu	s3,t3,14880
 380:	72656164 	0x72656164
 384:	2f777269 	sltiu	s7,k1,29289
 388:	74652077 	0x74652077
 38c:	61697420 	0x61697420
 390:	71756575 	0x71756575
 394:	65206163 	0x65206163
 398:	74697665 	0x74697665
 39c:	210a0000 	addi	t2,t0,0
 3a0:	3c343e72 	0x3c343e72
 3a4:	656c6561 	0x656c6561
 3a8:	73655f64 	0x73655f64
 3ac:	65763a20 	0x65763a20
 3b0:	62616420 	0x62616420
 3b4:	70747920 	0x70747920
 3b8:	736c6176 	0x736c6176
 3bc:	6520636f 	0x6520636f
 3c0:	756e7420 	0x756e7420
 3c4:	28256429 	slti	a1,at,25641
 3c8:	20666f72 	addi	a2,v1,28530
 3cc:	2025730a 	addi	a1,at,29450
 3d0:	00000000 	nop
 3d4:	3c343e72 	0x3c343e72
 3d8:	656c6561 	0x656c6561
 3dc:	73655f64 	0x73655f64
 3e0:	65763a20 	0x65763a20
 3e4:	62616420 	0x62616420
 3e8:	7474792d 	0x7474792d
 3ec:	3e636f75 	0x3e636f75
 3f0:	6e742028 	0x6e742028
 3f4:	25642920 	addiu	a0,t3,10528
 3f8:	666f7220 	0x666f7220
 3fc:	25730a00 	addiu	s3,t3,2560
 400:	7474795f 	0x7474795f
 404:	6f70656e 	0x6f70656e
 408:	00000000 	nop
 40c:	3c343e74 	0x3c343e74
 410:	74795f69 	0x74795f69
 414:	6f2e633a 	0x6f2e633a
 418:	2070726f 	addi	s0,v1,29295
 41c:	63657373 	0x63657373
 420:	20256420 	addi	a1,at,25632
 424:	28257329 	slti	a1,at,29481
 428:	20757365 	addi	s5,v1,29541
 42c:	64206f62 	0x64206f62
 430:	736f6c65 	0x736f6c65
 434:	7465202f 	0x7465202f
 438:	6465762f 	0x6465762f
 43c:	2573202d 	addiu	s3,t3,8237
 440:	20757064 	addi	s5,v1,28772
 444:	61746520 	0x61746520
 448:	736f6674 	0x736f6674
 44c:	77617265 	0x77617265
 450:	20746f20 	addi	s4,v1,28448
 454:	75736520 	0x75736520
 458:	2f646576 	sltiu	a0,k1,25974
 45c:	2f747479 	sltiu	s4,k1,29817
 460:	5325640a 	0x5325640a
 464:	00000000 	nop
 468:	7474795f 	0x7474795f
 46c:	706f6c6c 	0x706f6c6c
 470:	00000000 	nop
 474:	7474795f 	0x7474795f
 478:	66617379 	0x66617379
 47c:	6e630000 	0x6e630000
 480:	7474795f 	0x7474795f
 484:	696f6374 	0x696f6374
 488:	6c000000 	0x6c000000
 48c:	3c343e55 	0x3c343e55
 490:	7365206f 	0x7365206f
 494:	66207365 	0x66207365
 498:	74736572 	0x74736572
 49c:	69616c2f 	0x69616c2f
 4a0:	73657472 	0x73657472
 4a4:	6f636b65 	0x6f636b65
 4a8:	7420746f 	0x7420746f
 4ac:	20736574 	addi	s3,v1,25972
 4b0:	20535044 	addi	s3,v0,20548
 4b4:	5f2a2066 	0x5f2a2066
 4b8:	6c616773 	0x6c616773
 4bc:	20697320 	addi	t1,v1,29472
 4c0:	64657072 	0x64657072
 4c4:	65636174 	0x65636174
 4c8:	65640a00 	0x65640a00
 4cc:	2f646576 	sltiu	a0,k1,25974
 4d0:	2f747479 	sltiu	s4,k1,29817
 4d4:	00000000 	nop
 4d8:	436f756c 	c0	0x16f756c
 4dc:	646e2774 	0x646e2774
 4e0:	20726567 	addi	s2,v1,25959
 4e4:	69737465 	0x69737465
 4e8:	72202f64 	0x72202f64
 4ec:	65762f74 	0x65762f74
 4f0:	74792064 	0x74792064
 4f4:	72697665 	0x72697665
 4f8:	720a0000 	0x720a0000
 4fc:	2f646576 	sltiu	a0,k1,25974
 500:	2f636f6e 	sltiu	v1,k1,28526
 504:	736f6c65 	0x736f6c65
 508:	00000000 	nop
 50c:	436f756c 	c0	0x16f756c
 510:	646e2774 	0x646e2774
 514:	20726567 	addi	s2,v1,25959
 518:	69737465 	0x69737465
 51c:	72202f64 	0x72202f64
 520:	65762f63 	0x65762f63
 524:	6f6e736f 	0x6f6e736f
 528:	6c652064 	0x6c652064
 52c:	72697665 	0x72697665
 530:	720a0000 	0x720a0000
 534:	2f646576 	sltiu	a0,k1,25974
 538:	2f70746d 	sltiu	s0,k1,29805
 53c:	78000000 	0x78000000
 540:	436f756c 	c0	0x16f756c
 544:	646e2774 	0x646e2774
 548:	20726567 	addi	s2,v1,25959
 54c:	69737465 	0x69737465
 550:	72202f64 	0x72202f64
 554:	65762f70 	0x65762f70
 558:	746d7820 	0x746d7820
 55c:	64726976 	0x64726976
 560:	65720a00 	0x65720a00
	...
Disassembly of section .kstrtab:

00000000 <__kstrtab_tty_register_ldisc>:
   0:	7474795f 	0x7474795f
   4:	72656769 	0x72656769
   8:	73746572 	0x73746572
   c:	5f6c6469 	0x5f6c6469
  10:	73630000 	0x73630000

00000014 <__kstrtab_tty_register_devfs>:
  14:	7474795f 	0x7474795f
  18:	72656769 	0x72656769
  1c:	73746572 	0x73746572
  20:	5f646576 	0x5f646576
  24:	66730000 	0x66730000

00000028 <__kstrtab_tty_unregister_devfs>:
  28:	7474795f 	0x7474795f
  2c:	756e7265 	0x756e7265
  30:	67697374 	0x67697374
  34:	65725f64 	0x65725f64
  38:	65766673 	0x65766673
  3c:	00000000 	nop
Disassembly of section __ksymtab:

00000000 <__ksymtab_tty_register_ldisc>:
	...
			0: R_MIPS_32	tty_register_ldisc
			4: R_MIPS_32	__kstrtab_tty_register_ldisc

00000008 <__ksymtab_tty_register_devfs>:
	...
			8: R_MIPS_32	tty_register_devfs
			c: R_MIPS_32	__kstrtab_tty_register_devfs

00000010 <__ksymtab_tty_unregister_devfs>:
	...
			10: R_MIPS_32	tty_unregister_devfs
			14: R_MIPS_32	__kstrtab_tty_unregister_devfs
Disassembly of section .fixup:

00000000 <.fixup>:
   0:	2403fff2 	li	v1,-14
   4:	080009de 	j	2778 <tiocsti+0x68>
			4: R_MIPS_26	.text
   8:	00001021 	move	v0,zero
   c:	2402fff2 	li	v0,-14
  10:	08000a55 	j	2954 <fionbio+0xc>
			10: R_MIPS_26	.text
  14:	00001821 	move	v1,zero
  18:	08000ab7 	j	2adc <tiocgpgrp+0x28>
			18: R_MIPS_26	.text
  1c:	2403fff2 	li	v1,-14
  20:	2402fff2 	li	v0,-14
  24:	08000ad7 	j	2b5c <tiocspgrp+0x74>
			24: R_MIPS_26	.text
  28:	00008821 	move	s1,zero
  2c:	08000af7 	j	2bdc <tiocgsid+0x38>
			2c: R_MIPS_26	.text
  30:	2403fff2 	li	v1,-14
  34:	2402fff2 	li	v0,-14
  38:	08000b0c 	j	2c30 <tiocsetd+0x10>
			38: R_MIPS_26	.text
  3c:	00002821 	move	a1,zero
  40:	08000c66 	j	3198 <tty_ioctl+0x4bc>
			40: R_MIPS_26	.text
  44:	2404fff2 	li	a0,-14
Disassembly of section __ex_table:

00000000 <__ex_table>:
   0:	00002770 	0x2770
			0: R_MIPS_32	.text
   4:	00000000 	nop
			4: R_MIPS_32	.fixup
   8:	0000294c 	syscall	0xa5
			8: R_MIPS_32	.text
   c:	0000000c 	syscall
			c: R_MIPS_32	.fixup
  10:	00002ad4 	0x2ad4
			10: R_MIPS_32	.text
  14:	00000018 	mult	zero,zero
			14: R_MIPS_32	.fixup
  18:	00002b54 	0x2b54
			18: R_MIPS_32	.text
  1c:	00000020 	add	zero,zero,zero
			1c: R_MIPS_32	.fixup
  20:	00002bd4 	0x2bd4
			20: R_MIPS_32	.text
  24:	0000002c 	0x2c
			24: R_MIPS_32	.fixup
  28:	00002c28 	0x2c28
			28: R_MIPS_32	.text
  2c:	00000034 	0x34
			2c: R_MIPS_32	.fixup
  30:	00003190 	0x3190
			30: R_MIPS_32	.text
  34:	00000040 	sll	zero,zero,0x1
			34: R_MIPS_32	.fixup
Disassembly of section .text.init:

00000000 <console_init>:
   0:	27bdffe8 	addiu	sp,sp,-24
   4:	afbf0014 	sw	ra,20(sp)
   8:	afb00010 	sw	s0,16(sp)
   c:	3c040000 	lui	a0,0x0
			c: R_MIPS_HI16	ldiscs
  10:	24840000 	addiu	a0,a0,0
			10: R_MIPS_LO16	ldiscs
  14:	00002821 	move	a1,zero
  18:	0c000000 	jal	0 <console_init>
			18: R_MIPS_26	memset
  1c:	24060400 	li	a2,1024
  20:	3c050000 	lui	a1,0x0
			20: R_MIPS_HI16	tty_ldisc_N_TTY
  24:	24a50000 	addiu	a1,a1,0
			24: R_MIPS_LO16	tty_ldisc_N_TTY
  28:	0c000000 	jal	0 <console_init>
			28: R_MIPS_26	tty_register_ldisc
  2c:	00002021 	move	a0,zero
  30:	3c100000 	lui	s0,0x0
			30: R_MIPS_HI16	tty_std_termios
  34:	26100000 	addiu	s0,s0,0
			34: R_MIPS_LO16	tty_std_termios
  38:	02002021 	move	a0,s0
  3c:	00002821 	move	a1,zero
  40:	0c000000 	jal	0 <console_init>
			40: R_MIPS_26	memset
  44:	24060028 	li	a2,40
  48:	24020500 	li	v0,1280
  4c:	ae020000 	sw	v0,0(s0)
  50:	24020005 	li	v0,5
  54:	ae020004 	sw	v0,4(s0)
  58:	240204bf 	li	v0,1215
  5c:	ae020008 	sw	v0,8(s0)
  60:	24020b3b 	li	v0,2875
  64:	0c000000 	jal	0 <console_init>
			64: R_MIPS_26	tx39_serial_console_init
  68:	ae02000c 	sw	v0,12(s0)
  6c:	8fbf0014 	lw	ra,20(sp)
  70:	8fb00010 	lw	s0,16(sp)
  74:	03e00008 	jr	ra
  78:	27bd0018 	addiu	sp,sp,24

0000007c <tty_init>:
  7c:	27bdffe8 	addiu	sp,sp,-24
  80:	afbf0014 	sw	ra,20(sp)
  84:	afb00010 	sw	s0,16(sp)
  88:	3c100000 	lui	s0,0x0
			88: R_MIPS_HI16	.bss
  8c:	26100434 	addiu	s0,s0,1076
			8c: R_MIPS_LO16	.bss
  90:	02002021 	move	a0,s0
  94:	00002821 	move	a1,zero
  98:	0c000000 	jal	0 <console_init>
			98: R_MIPS_26	memset
  9c:	240600c0 	li	a2,192
  a0:	24025402 	li	v0,21506
  a4:	ae020000 	sw	v0,0(s0)
  a8:	3c020000 	lui	v0,0x0
			a8: R_MIPS_HI16	.rodata
  ac:	244204cc 	addiu	v0,v0,1228
			ac: R_MIPS_LO16	.rodata
  b0:	ae020004 	sw	v0,4(s0)
  b4:	24420005 	addiu	v0,v0,5
  b8:	ae020008 	sw	v0,8(s0)
  bc:	ae00000c 	sw	zero,12(s0)
  c0:	24020005 	li	v0,5
  c4:	a6020010 	sh	v0,16(s0)
  c8:	a6000012 	sh	zero,18(s0)
  cc:	24020001 	li	v0,1
  d0:	a6020014 	sh	v0,20(s0)
  d4:	a6020016 	sh	v0,22(s0)
  d8:	a6020018 	sh	v0,24(s0)
  dc:	0c000000 	jal	0 <console_init>
			dc: R_MIPS_26	tty_register_driver
  e0:	02002021 	move	a0,s0
  e4:	3c040000 	lui	a0,0x0
			e4: R_MIPS_HI16	.rodata
  e8:	14400049 	bnez	v0,210 <tty_init+0x194>
  ec:	248404d8 	addiu	a0,a0,1240
			ec: R_MIPS_LO16	.rodata
  f0:	3c030000 	lui	v1,0x0
			f0: R_MIPS_HI16	.bss
  f4:	246304f4 	addiu	v1,v1,1268
			f4: R_MIPS_LO16	.bss
  f8:	3c020000 	lui	v0,0x0
			f8: R_MIPS_HI16	.bss
  fc:	24420434 	addiu	v0,v0,1076
			fc: R_MIPS_LO16	.bss
 100:	244400c0 	addiu	a0,v0,192
 104:	8c450000 	lw	a1,0(v0)
 108:	8c460004 	lw	a2,4(v0)
 10c:	8c470008 	lw	a3,8(v0)
 110:	8c48000c 	lw	t0,12(v0)
 114:	ac650000 	sw	a1,0(v1)
 118:	ac660004 	sw	a2,4(v1)
 11c:	ac670008 	sw	a3,8(v1)
 120:	ac68000c 	sw	t0,12(v1)
 124:	24420010 	addiu	v0,v0,16
 128:	1444fff6 	bne	v0,a0,104 <tty_init+0x88>
 12c:	24630010 	addiu	v1,v1,16
 130:	3c040000 	lui	a0,0x0
			130: R_MIPS_HI16	.bss
 134:	248404f8 	addiu	a0,a0,1272
			134: R_MIPS_LO16	.bss
 138:	3c020000 	lui	v0,0x0
			138: R_MIPS_HI16	.rodata
 13c:	244204fc 	addiu	v0,v0,1276
			13c: R_MIPS_LO16	.rodata
 140:	ac820000 	sw	v0,0(a0)
 144:	24420005 	addiu	v0,v0,5
 148:	ac820004 	sw	v0,4(a0)
 14c:	24020005 	li	v0,5
 150:	a482000c 	sh	v0,12(a0)
 154:	24020001 	li	v0,1
 158:	a482000e 	sh	v0,14(a0)
 15c:	a4820012 	sh	v0,18(a0)
 160:	24020003 	li	v0,3
 164:	a4820014 	sh	v0,20(a0)
 168:	0c000000 	jal	0 <console_init>
			168: R_MIPS_26	tty_register_driver
 16c:	2484fffc 	addiu	a0,a0,-4
 170:	3c040000 	lui	a0,0x0
			170: R_MIPS_HI16	.rodata
 174:	14400026 	bnez	v0,210 <tty_init+0x194>
 178:	2484050c 	addiu	a0,a0,1292
			178: R_MIPS_LO16	.rodata
 17c:	3c030000 	lui	v1,0x0
			17c: R_MIPS_HI16	.bss
 180:	246305b4 	addiu	v1,v1,1460
			180: R_MIPS_LO16	.bss
 184:	3c020000 	lui	v0,0x0
			184: R_MIPS_HI16	.bss
 188:	24420434 	addiu	v0,v0,1076
			188: R_MIPS_LO16	.bss
 18c:	244400c0 	addiu	a0,v0,192
 190:	8c450000 	lw	a1,0(v0)
 194:	8c460004 	lw	a2,4(v0)
 198:	8c470008 	lw	a3,8(v0)
 19c:	8c48000c 	lw	t0,12(v0)
 1a0:	ac650000 	sw	a1,0(v1)
 1a4:	ac660004 	sw	a2,4(v1)
 1a8:	ac670008 	sw	a3,8(v1)
 1ac:	ac68000c 	sw	t0,12(v1)
 1b0:	24420010 	addiu	v0,v0,16
 1b4:	1444fff6 	bne	v0,a0,190 <tty_init+0x114>
 1b8:	24630010 	addiu	v1,v1,16
 1bc:	3c040000 	lui	a0,0x0
			1bc: R_MIPS_HI16	.bss
 1c0:	248405b8 	addiu	a0,a0,1464
			1c0: R_MIPS_LO16	.bss
 1c4:	3c020000 	lui	v0,0x0
			1c4: R_MIPS_HI16	.rodata
 1c8:	24420534 	addiu	v0,v0,1332
			1c8: R_MIPS_LO16	.rodata
 1cc:	ac820000 	sw	v0,0(a0)
 1d0:	24420005 	addiu	v0,v0,5
 1d4:	ac820004 	sw	v0,4(a0)
 1d8:	24020005 	li	v0,5
 1dc:	a482000c 	sh	v0,12(a0)
 1e0:	24020002 	li	v0,2
 1e4:	a482000e 	sh	v0,14(a0)
 1e8:	24020001 	li	v0,1
 1ec:	a4820012 	sh	v0,18(a0)
 1f0:	24020004 	li	v0,4
 1f4:	a4820014 	sh	v0,20(a0)
 1f8:	0c000000 	jal	0 <console_init>
			1f8: R_MIPS_26	tty_register_driver
 1fc:	2484fffc 	addiu	a0,a0,-4
 200:	10400005 	beqz	v0,218 <tty_init+0x19c>
 204:	00000000 	nop
 208:	3c040000 	lui	a0,0x0
			208: R_MIPS_HI16	.rodata
 20c:	24840540 	addiu	a0,a0,1344
			20c: R_MIPS_LO16	.rodata
 210:	0c000000 	jal	0 <console_init>
			210: R_MIPS_26	panic
 214:	00000000 	nop
 218:	0c000000 	jal	0 <console_init>
			218: R_MIPS_26	rs_init
 21c:	00000000 	nop
 220:	0c000000 	jal	0 <console_init>
			220: R_MIPS_26	pty_init
 224:	00000000 	nop
 228:	8fbf0014 	lw	ra,20(sp)
 22c:	8fb00010 	lw	s0,16(sp)
 230:	03e00008 	jr	ra
 234:	27bd0018 	addiu	sp,sp,24
